
vmm/guest/obj/kern/kernel:     file format elf64-x86-64


Disassembly of section .bootstrap:

0000000000100000 <_head64>:
_head64:

# Save multiboot_info addr passed by bootloader
#ifdef VMM_GUEST
// VMCALL to the VMM to get a multiboot map.
    movl $VMX_VMCALL_MBMAP, %eax
  100000:	b8 01 00 00 00       	mov    $0x1,%eax
    vmcall
  100005:	0f 01 c1             	vmcall 
#endif

    movl $multiboot_info, %eax
  100008:	b8 00 70 10 00       	mov    $0x107000,%eax
    movl %ebx, (%eax)
  10000d:	89 18                	mov    %ebx,(%rax)
#ifndef VMM_GUEST
    movw $0x1234,0x472			# warm boot
#endif

# Reset the stack pointer in case we didn't come from the loader
    movl $0x7c00,%esp
  10000f:	bc 00 7c 00 00       	mov    $0x7c00,%esp

    call verify_cpu   #check if CPU supports long mode
  100014:	e8 cc 00 00 00       	callq  1000e5 <verify_cpu>
#ifndef VMM_GUEST
    movl $CR4_PAE,%eax
#else
    movl $(CR4_PAE|CR4_VMXE),%eax
  100019:	b8 20 20 00 00       	mov    $0x2020,%eax
#endif
    movl %eax,%cr4
  10001e:	0f 22 e0             	mov    %rax,%cr4

# build an early boot pml4 at physical address pml4phys 

    #initializing the page tables
    movl $pml4,%edi
  100021:	bf 00 20 10 00       	mov    $0x102000,%edi
    xorl %eax,%eax
  100026:	31 c0                	xor    %eax,%eax
    movl $((4096/4)*5),%ecx  # moving these many words to the 6 pages with 4 second level pages + 1 3rd level + 1 4th level pages 
  100028:	b9 00 14 00 00       	mov    $0x1400,%ecx
    rep stosl
  10002d:	f3 ab                	rep stos %eax,%es:(%rdi)
    # creating a 4G boot page table
    # setting the 4th level page table only the second entry needed (PML4)
    movl $pml4,%eax
  10002f:	b8 00 20 10 00       	mov    $0x102000,%eax
    movl $pdpt1, %ebx
  100034:	bb 00 30 10 00       	mov    $0x103000,%ebx
    orl $PTE_P,%ebx
  100039:	83 cb 01             	or     $0x1,%ebx
    orl $PTE_W,%ebx
  10003c:	83 cb 02             	or     $0x2,%ebx
    movl %ebx,(%eax)
  10003f:	89 18                	mov    %ebx,(%rax)

    movl $pdpt2, %ebx
  100041:	bb 00 40 10 00       	mov    $0x104000,%ebx
    orl $PTE_P,%ebx
  100046:	83 cb 01             	or     $0x1,%ebx
    orl $PTE_W,%ebx
  100049:	83 cb 02             	or     $0x2,%ebx
    movl %ebx,0x8(%eax)
  10004c:	89 58 08             	mov    %ebx,0x8(%rax)

    # setting the 3rd level page table (PDPE)
    # 4 entries (counter in ecx), point to the next four physical pages (pgdirs)
    # pgdirs in 0xa0000--0xd000
    movl $pdpt1,%edi
  10004f:	bf 00 30 10 00       	mov    $0x103000,%edi
    movl $pde1,%ebx
  100054:	bb 00 50 10 00       	mov    $0x105000,%ebx
    orl $PTE_P,%ebx
  100059:	83 cb 01             	or     $0x1,%ebx
    orl $PTE_W,%ebx
  10005c:	83 cb 02             	or     $0x2,%ebx
    movl %ebx,(%edi)
  10005f:	89 1f                	mov    %ebx,(%rdi)

    movl $pdpt2,%edi
  100061:	bf 00 40 10 00       	mov    $0x104000,%edi
    movl $pde2,%ebx
  100066:	bb 00 60 10 00       	mov    $0x106000,%ebx
    orl $PTE_P,%ebx
  10006b:	83 cb 01             	or     $0x1,%ebx
    orl $PTE_W,%ebx
  10006e:	83 cb 02             	or     $0x2,%ebx
    movl %ebx,(%edi)
  100071:	89 1f                	mov    %ebx,(%rdi)
    
    # setting the pgdir so that the LA=PA
    # mapping first 1G of mem at KERNBASE
    movl $128,%ecx
  100073:	b9 80 00 00 00       	mov    $0x80,%ecx
    # Start at the end and work backwards
    #leal (pml4 + 5*0x1000 - 0x8),%edi
    movl $pde1,%edi
  100078:	bf 00 50 10 00       	mov    $0x105000,%edi
    movl $pde2,%ebx
  10007d:	bb 00 60 10 00       	mov    $0x106000,%ebx
    #64th entry - 0x8004000000
    addl $256,%ebx 
  100082:	81 c3 00 01 00 00    	add    $0x100,%ebx
    # PTE_P|PTE_W|PTE_MBZ
    movl $0x00000183,%eax
  100088:	b8 83 01 00 00       	mov    $0x183,%eax
  1:
     movl %eax,(%edi)
  10008d:	89 07                	mov    %eax,(%rdi)
     movl %eax,(%ebx)
  10008f:	89 03                	mov    %eax,(%rbx)
     addl $0x8,%edi
  100091:	83 c7 08             	add    $0x8,%edi
     addl $0x8,%ebx
  100094:	83 c3 08             	add    $0x8,%ebx
     addl $0x00200000,%eax
  100097:	05 00 00 20 00       	add    $0x200000,%eax
     subl $1,%ecx
  10009c:	83 e9 01             	sub    $0x1,%ecx
     cmp $0x0,%ecx
  10009f:	83 f9 00             	cmp    $0x0,%ecx
     jne 1b
  1000a2:	75 e9                	jne    10008d <_head64+0x8d>
 /*    subl $1,%ecx */
 /*    cmp $0x0,%ecx */
 /*    jne 1b */

    # set the cr3 register
    movl $pml4,%eax
  1000a4:	b8 00 20 10 00       	mov    $0x102000,%eax
    movl %eax, %cr3
  1000a9:	0f 22 d8             	mov    %rax,%cr3

	
    # enable the long mode in MSR
    movl $EFER_MSR,%ecx
  1000ac:	b9 80 00 00 c0       	mov    $0xc0000080,%ecx
    rdmsr
  1000b1:	0f 32                	rdmsr  
    btsl $EFER_LME,%eax
  1000b3:	0f ba e8 08          	bts    $0x8,%eax
    wrmsr
  1000b7:	0f 30                	wrmsr  
    
    # enable paging 
    movl %cr0,%eax
  1000b9:	0f 20 c0             	mov    %cr0,%rax
    orl $CR0_PE,%eax
  1000bc:	83 c8 01             	or     $0x1,%eax
    orl $CR0_PG,%eax
  1000bf:	0d 00 00 00 80       	or     $0x80000000,%eax
    orl $CR0_AM,%eax
  1000c4:	0d 00 00 04 00       	or     $0x40000,%eax
    orl $CR0_WP,%eax
  1000c9:	0d 00 00 01 00       	or     $0x10000,%eax
    orl $CR0_MP,%eax
  1000ce:	83 c8 02             	or     $0x2,%eax
    movl %eax,%cr0
  1000d1:	0f 22 c0             	mov    %rax,%cr0
    #jump to long mode with CS=0 and

    movl $gdtdesc_64,%eax
  1000d4:	b8 18 10 10 00       	mov    $0x101018,%eax
    lgdt (%eax)
  1000d9:	0f 01 10             	lgdt   (%rax)
    pushl $0x8
  1000dc:	6a 08                	pushq  $0x8
    movl $_start,%eax
  1000de:	b8 0c 00 20 00       	mov    $0x20000c,%eax
    pushl %eax
  1000e3:	50                   	push   %rax

00000000001000e4 <jumpto_longmode>:
    
    .globl jumpto_longmode
    .type jumpto_longmode,@function
jumpto_longmode:
    lret
  1000e4:	cb                   	lret   

00000000001000e5 <verify_cpu>:
/*     movabs $_back_from_head64, %rax */
/*     pushq %rax */
/*     lretq */

verify_cpu:
    pushfl                   # get eflags in eax -- standardard way to check for cpuid
  1000e5:	9c                   	pushfq 
    popl %eax
  1000e6:	58                   	pop    %rax
    movl %eax,%ecx
  1000e7:	89 c1                	mov    %eax,%ecx
    xorl $0x200000, %eax
  1000e9:	35 00 00 20 00       	xor    $0x200000,%eax
    pushl %eax
  1000ee:	50                   	push   %rax
    popfl
  1000ef:	9d                   	popfq  
    pushfl
  1000f0:	9c                   	pushfq 
    popl %eax
  1000f1:	58                   	pop    %rax
    cmpl %eax,%ebx
  1000f2:	39 c3                	cmp    %eax,%ebx
    jz verify_cpu_no_longmode   # no cpuid -- no long mode
  1000f4:	74 1c                	je     100112 <verify_cpu_no_longmode>

    movl $0x0,%eax              # see if cpuid 1 is implemented
  1000f6:	b8 00 00 00 00       	mov    $0x0,%eax
    cpuid
  1000fb:	0f a2                	cpuid  
    cmpl $0x1,%eax
  1000fd:	83 f8 01             	cmp    $0x1,%eax
    jb verify_cpu_no_longmode    # cpuid 1 is not implemented
  100100:	72 10                	jb     100112 <verify_cpu_no_longmode>


    mov $0x80000001, %eax
  100102:	b8 01 00 00 80       	mov    $0x80000001,%eax
    cpuid                 
  100107:	0f a2                	cpuid  
    test $(1 << 29),%edx                 #Test if the LM-bit, is set or not.
  100109:	f7 c2 00 00 00 20    	test   $0x20000000,%edx
    jz verify_cpu_no_longmode
  10010f:	74 01                	je     100112 <verify_cpu_no_longmode>

    ret
  100111:	c3                   	retq   

0000000000100112 <verify_cpu_no_longmode>:

verify_cpu_no_longmode:
    jmp verify_cpu_no_longmode
  100112:	eb fe                	jmp    100112 <verify_cpu_no_longmode>
  100114:	66 2e 0f 1f 84 00 00 	nopw   %cs:0x0(%rax,%rax,1)
  10011b:	00 00 00 
  10011e:	66 2e 0f 1f 84 00 00 	nopw   %cs:0x0(%rax,%rax,1)
  100125:	00 00 00 
  100128:	66 2e 0f 1f 84 00 00 	nopw   %cs:0x0(%rax,%rax,1)
  10012f:	00 00 00 
  100132:	66 2e 0f 1f 84 00 00 	nopw   %cs:0x0(%rax,%rax,1)
  100139:	00 00 00 
  10013c:	66 2e 0f 1f 84 00 00 	nopw   %cs:0x0(%rax,%rax,1)
  100143:	00 00 00 
  100146:	66 2e 0f 1f 84 00 00 	nopw   %cs:0x0(%rax,%rax,1)
  10014d:	00 00 00 
  100150:	66 2e 0f 1f 84 00 00 	nopw   %cs:0x0(%rax,%rax,1)
  100157:	00 00 00 
  10015a:	66 2e 0f 1f 84 00 00 	nopw   %cs:0x0(%rax,%rax,1)
  100161:	00 00 00 
  100164:	66 2e 0f 1f 84 00 00 	nopw   %cs:0x0(%rax,%rax,1)
  10016b:	00 00 00 
  10016e:	66 2e 0f 1f 84 00 00 	nopw   %cs:0x0(%rax,%rax,1)
  100175:	00 00 00 
  100178:	66 2e 0f 1f 84 00 00 	nopw   %cs:0x0(%rax,%rax,1)
  10017f:	00 00 00 
  100182:	66 2e 0f 1f 84 00 00 	nopw   %cs:0x0(%rax,%rax,1)
  100189:	00 00 00 
  10018c:	66 2e 0f 1f 84 00 00 	nopw   %cs:0x0(%rax,%rax,1)
  100193:	00 00 00 
  100196:	66 2e 0f 1f 84 00 00 	nopw   %cs:0x0(%rax,%rax,1)
  10019d:	00 00 00 
  1001a0:	66 2e 0f 1f 84 00 00 	nopw   %cs:0x0(%rax,%rax,1)
  1001a7:	00 00 00 
  1001aa:	66 2e 0f 1f 84 00 00 	nopw   %cs:0x0(%rax,%rax,1)
  1001b1:	00 00 00 
  1001b4:	66 2e 0f 1f 84 00 00 	nopw   %cs:0x0(%rax,%rax,1)
  1001bb:	00 00 00 
  1001be:	66 2e 0f 1f 84 00 00 	nopw   %cs:0x0(%rax,%rax,1)
  1001c5:	00 00 00 
  1001c8:	66 2e 0f 1f 84 00 00 	nopw   %cs:0x0(%rax,%rax,1)
  1001cf:	00 00 00 
  1001d2:	66 2e 0f 1f 84 00 00 	nopw   %cs:0x0(%rax,%rax,1)
  1001d9:	00 00 00 
  1001dc:	66 2e 0f 1f 84 00 00 	nopw   %cs:0x0(%rax,%rax,1)
  1001e3:	00 00 00 
  1001e6:	66 2e 0f 1f 84 00 00 	nopw   %cs:0x0(%rax,%rax,1)
  1001ed:	00 00 00 
  1001f0:	66 2e 0f 1f 84 00 00 	nopw   %cs:0x0(%rax,%rax,1)
  1001f7:	00 00 00 
  1001fa:	66 2e 0f 1f 84 00 00 	nopw   %cs:0x0(%rax,%rax,1)
  100201:	00 00 00 
  100204:	66 2e 0f 1f 84 00 00 	nopw   %cs:0x0(%rax,%rax,1)
  10020b:	00 00 00 
  10020e:	66 2e 0f 1f 84 00 00 	nopw   %cs:0x0(%rax,%rax,1)
  100215:	00 00 00 
  100218:	66 2e 0f 1f 84 00 00 	nopw   %cs:0x0(%rax,%rax,1)
  10021f:	00 00 00 
  100222:	66 2e 0f 1f 84 00 00 	nopw   %cs:0x0(%rax,%rax,1)
  100229:	00 00 00 
  10022c:	66 2e 0f 1f 84 00 00 	nopw   %cs:0x0(%rax,%rax,1)
  100233:	00 00 00 
  100236:	66 2e 0f 1f 84 00 00 	nopw   %cs:0x0(%rax,%rax,1)
  10023d:	00 00 00 
  100240:	66 2e 0f 1f 84 00 00 	nopw   %cs:0x0(%rax,%rax,1)
  100247:	00 00 00 
  10024a:	66 2e 0f 1f 84 00 00 	nopw   %cs:0x0(%rax,%rax,1)
  100251:	00 00 00 
  100254:	66 2e 0f 1f 84 00 00 	nopw   %cs:0x0(%rax,%rax,1)
  10025b:	00 00 00 
  10025e:	66 2e 0f 1f 84 00 00 	nopw   %cs:0x0(%rax,%rax,1)
  100265:	00 00 00 
  100268:	66 2e 0f 1f 84 00 00 	nopw   %cs:0x0(%rax,%rax,1)
  10026f:	00 00 00 
  100272:	66 2e 0f 1f 84 00 00 	nopw   %cs:0x0(%rax,%rax,1)
  100279:	00 00 00 
  10027c:	66 2e 0f 1f 84 00 00 	nopw   %cs:0x0(%rax,%rax,1)
  100283:	00 00 00 
  100286:	66 2e 0f 1f 84 00 00 	nopw   %cs:0x0(%rax,%rax,1)
  10028d:	00 00 00 
  100290:	66 2e 0f 1f 84 00 00 	nopw   %cs:0x0(%rax,%rax,1)
  100297:	00 00 00 
  10029a:	66 2e 0f 1f 84 00 00 	nopw   %cs:0x0(%rax,%rax,1)
  1002a1:	00 00 00 
  1002a4:	66 2e 0f 1f 84 00 00 	nopw   %cs:0x0(%rax,%rax,1)
  1002ab:	00 00 00 
  1002ae:	66 2e 0f 1f 84 00 00 	nopw   %cs:0x0(%rax,%rax,1)
  1002b5:	00 00 00 
  1002b8:	66 2e 0f 1f 84 00 00 	nopw   %cs:0x0(%rax,%rax,1)
  1002bf:	00 00 00 
  1002c2:	66 2e 0f 1f 84 00 00 	nopw   %cs:0x0(%rax,%rax,1)
  1002c9:	00 00 00 
  1002cc:	66 2e 0f 1f 84 00 00 	nopw   %cs:0x0(%rax,%rax,1)
  1002d3:	00 00 00 
  1002d6:	66 2e 0f 1f 84 00 00 	nopw   %cs:0x0(%rax,%rax,1)
  1002dd:	00 00 00 
  1002e0:	66 2e 0f 1f 84 00 00 	nopw   %cs:0x0(%rax,%rax,1)
  1002e7:	00 00 00 
  1002ea:	66 2e 0f 1f 84 00 00 	nopw   %cs:0x0(%rax,%rax,1)
  1002f1:	00 00 00 
  1002f4:	66 2e 0f 1f 84 00 00 	nopw   %cs:0x0(%rax,%rax,1)
  1002fb:	00 00 00 
  1002fe:	66 2e 0f 1f 84 00 00 	nopw   %cs:0x0(%rax,%rax,1)
  100305:	00 00 00 
  100308:	66 2e 0f 1f 84 00 00 	nopw   %cs:0x0(%rax,%rax,1)
  10030f:	00 00 00 
  100312:	66 2e 0f 1f 84 00 00 	nopw   %cs:0x0(%rax,%rax,1)
  100319:	00 00 00 
  10031c:	66 2e 0f 1f 84 00 00 	nopw   %cs:0x0(%rax,%rax,1)
  100323:	00 00 00 
  100326:	66 2e 0f 1f 84 00 00 	nopw   %cs:0x0(%rax,%rax,1)
  10032d:	00 00 00 
  100330:	66 2e 0f 1f 84 00 00 	nopw   %cs:0x0(%rax,%rax,1)
  100337:	00 00 00 
  10033a:	66 2e 0f 1f 84 00 00 	nopw   %cs:0x0(%rax,%rax,1)
  100341:	00 00 00 
  100344:	66 2e 0f 1f 84 00 00 	nopw   %cs:0x0(%rax,%rax,1)
  10034b:	00 00 00 
  10034e:	66 2e 0f 1f 84 00 00 	nopw   %cs:0x0(%rax,%rax,1)
  100355:	00 00 00 
  100358:	66 2e 0f 1f 84 00 00 	nopw   %cs:0x0(%rax,%rax,1)
  10035f:	00 00 00 
  100362:	66 2e 0f 1f 84 00 00 	nopw   %cs:0x0(%rax,%rax,1)
  100369:	00 00 00 
  10036c:	66 2e 0f 1f 84 00 00 	nopw   %cs:0x0(%rax,%rax,1)
  100373:	00 00 00 
  100376:	66 2e 0f 1f 84 00 00 	nopw   %cs:0x0(%rax,%rax,1)
  10037d:	00 00 00 
  100380:	66 2e 0f 1f 84 00 00 	nopw   %cs:0x0(%rax,%rax,1)
  100387:	00 00 00 
  10038a:	66 2e 0f 1f 84 00 00 	nopw   %cs:0x0(%rax,%rax,1)
  100391:	00 00 00 
  100394:	66 2e 0f 1f 84 00 00 	nopw   %cs:0x0(%rax,%rax,1)
  10039b:	00 00 00 
  10039e:	66 2e 0f 1f 84 00 00 	nopw   %cs:0x0(%rax,%rax,1)
  1003a5:	00 00 00 
  1003a8:	66 2e 0f 1f 84 00 00 	nopw   %cs:0x0(%rax,%rax,1)
  1003af:	00 00 00 
  1003b2:	66 2e 0f 1f 84 00 00 	nopw   %cs:0x0(%rax,%rax,1)
  1003b9:	00 00 00 
  1003bc:	66 2e 0f 1f 84 00 00 	nopw   %cs:0x0(%rax,%rax,1)
  1003c3:	00 00 00 
  1003c6:	66 2e 0f 1f 84 00 00 	nopw   %cs:0x0(%rax,%rax,1)
  1003cd:	00 00 00 
  1003d0:	66 2e 0f 1f 84 00 00 	nopw   %cs:0x0(%rax,%rax,1)
  1003d7:	00 00 00 
  1003da:	66 2e 0f 1f 84 00 00 	nopw   %cs:0x0(%rax,%rax,1)
  1003e1:	00 00 00 
  1003e4:	66 2e 0f 1f 84 00 00 	nopw   %cs:0x0(%rax,%rax,1)
  1003eb:	00 00 00 
  1003ee:	66 2e 0f 1f 84 00 00 	nopw   %cs:0x0(%rax,%rax,1)
  1003f5:	00 00 00 
  1003f8:	66 2e 0f 1f 84 00 00 	nopw   %cs:0x0(%rax,%rax,1)
  1003ff:	00 00 00 
  100402:	66 2e 0f 1f 84 00 00 	nopw   %cs:0x0(%rax,%rax,1)
  100409:	00 00 00 
  10040c:	66 2e 0f 1f 84 00 00 	nopw   %cs:0x0(%rax,%rax,1)
  100413:	00 00 00 
  100416:	66 2e 0f 1f 84 00 00 	nopw   %cs:0x0(%rax,%rax,1)
  10041d:	00 00 00 
  100420:	66 2e 0f 1f 84 00 00 	nopw   %cs:0x0(%rax,%rax,1)
  100427:	00 00 00 
  10042a:	66 2e 0f 1f 84 00 00 	nopw   %cs:0x0(%rax,%rax,1)
  100431:	00 00 00 
  100434:	66 2e 0f 1f 84 00 00 	nopw   %cs:0x0(%rax,%rax,1)
  10043b:	00 00 00 
  10043e:	66 2e 0f 1f 84 00 00 	nopw   %cs:0x0(%rax,%rax,1)
  100445:	00 00 00 
  100448:	66 2e 0f 1f 84 00 00 	nopw   %cs:0x0(%rax,%rax,1)
  10044f:	00 00 00 
  100452:	66 2e 0f 1f 84 00 00 	nopw   %cs:0x0(%rax,%rax,1)
  100459:	00 00 00 
  10045c:	66 2e 0f 1f 84 00 00 	nopw   %cs:0x0(%rax,%rax,1)
  100463:	00 00 00 
  100466:	66 2e 0f 1f 84 00 00 	nopw   %cs:0x0(%rax,%rax,1)
  10046d:	00 00 00 
  100470:	66 2e 0f 1f 84 00 00 	nopw   %cs:0x0(%rax,%rax,1)
  100477:	00 00 00 
  10047a:	66 2e 0f 1f 84 00 00 	nopw   %cs:0x0(%rax,%rax,1)
  100481:	00 00 00 
  100484:	66 2e 0f 1f 84 00 00 	nopw   %cs:0x0(%rax,%rax,1)
  10048b:	00 00 00 
  10048e:	66 2e 0f 1f 84 00 00 	nopw   %cs:0x0(%rax,%rax,1)
  100495:	00 00 00 
  100498:	66 2e 0f 1f 84 00 00 	nopw   %cs:0x0(%rax,%rax,1)
  10049f:	00 00 00 
  1004a2:	66 2e 0f 1f 84 00 00 	nopw   %cs:0x0(%rax,%rax,1)
  1004a9:	00 00 00 
  1004ac:	66 2e 0f 1f 84 00 00 	nopw   %cs:0x0(%rax,%rax,1)
  1004b3:	00 00 00 
  1004b6:	66 2e 0f 1f 84 00 00 	nopw   %cs:0x0(%rax,%rax,1)
  1004bd:	00 00 00 
  1004c0:	66 2e 0f 1f 84 00 00 	nopw   %cs:0x0(%rax,%rax,1)
  1004c7:	00 00 00 
  1004ca:	66 2e 0f 1f 84 00 00 	nopw   %cs:0x0(%rax,%rax,1)
  1004d1:	00 00 00 
  1004d4:	66 2e 0f 1f 84 00 00 	nopw   %cs:0x0(%rax,%rax,1)
  1004db:	00 00 00 
  1004de:	66 2e 0f 1f 84 00 00 	nopw   %cs:0x0(%rax,%rax,1)
  1004e5:	00 00 00 
  1004e8:	66 2e 0f 1f 84 00 00 	nopw   %cs:0x0(%rax,%rax,1)
  1004ef:	00 00 00 
  1004f2:	66 2e 0f 1f 84 00 00 	nopw   %cs:0x0(%rax,%rax,1)
  1004f9:	00 00 00 
  1004fc:	66 2e 0f 1f 84 00 00 	nopw   %cs:0x0(%rax,%rax,1)
  100503:	00 00 00 
  100506:	66 2e 0f 1f 84 00 00 	nopw   %cs:0x0(%rax,%rax,1)
  10050d:	00 00 00 
  100510:	66 2e 0f 1f 84 00 00 	nopw   %cs:0x0(%rax,%rax,1)
  100517:	00 00 00 
  10051a:	66 2e 0f 1f 84 00 00 	nopw   %cs:0x0(%rax,%rax,1)
  100521:	00 00 00 
  100524:	66 2e 0f 1f 84 00 00 	nopw   %cs:0x0(%rax,%rax,1)
  10052b:	00 00 00 
  10052e:	66 2e 0f 1f 84 00 00 	nopw   %cs:0x0(%rax,%rax,1)
  100535:	00 00 00 
  100538:	66 2e 0f 1f 84 00 00 	nopw   %cs:0x0(%rax,%rax,1)
  10053f:	00 00 00 
  100542:	66 2e 0f 1f 84 00 00 	nopw   %cs:0x0(%rax,%rax,1)
  100549:	00 00 00 
  10054c:	66 2e 0f 1f 84 00 00 	nopw   %cs:0x0(%rax,%rax,1)
  100553:	00 00 00 
  100556:	66 2e 0f 1f 84 00 00 	nopw   %cs:0x0(%rax,%rax,1)
  10055d:	00 00 00 
  100560:	66 2e 0f 1f 84 00 00 	nopw   %cs:0x0(%rax,%rax,1)
  100567:	00 00 00 
  10056a:	66 2e 0f 1f 84 00 00 	nopw   %cs:0x0(%rax,%rax,1)
  100571:	00 00 00 
  100574:	66 2e 0f 1f 84 00 00 	nopw   %cs:0x0(%rax,%rax,1)
  10057b:	00 00 00 
  10057e:	66 2e 0f 1f 84 00 00 	nopw   %cs:0x0(%rax,%rax,1)
  100585:	00 00 00 
  100588:	66 2e 0f 1f 84 00 00 	nopw   %cs:0x0(%rax,%rax,1)
  10058f:	00 00 00 
  100592:	66 2e 0f 1f 84 00 00 	nopw   %cs:0x0(%rax,%rax,1)
  100599:	00 00 00 
  10059c:	66 2e 0f 1f 84 00 00 	nopw   %cs:0x0(%rax,%rax,1)
  1005a3:	00 00 00 
  1005a6:	66 2e 0f 1f 84 00 00 	nopw   %cs:0x0(%rax,%rax,1)
  1005ad:	00 00 00 
  1005b0:	66 2e 0f 1f 84 00 00 	nopw   %cs:0x0(%rax,%rax,1)
  1005b7:	00 00 00 
  1005ba:	66 2e 0f 1f 84 00 00 	nopw   %cs:0x0(%rax,%rax,1)
  1005c1:	00 00 00 
  1005c4:	66 2e 0f 1f 84 00 00 	nopw   %cs:0x0(%rax,%rax,1)
  1005cb:	00 00 00 
  1005ce:	66 2e 0f 1f 84 00 00 	nopw   %cs:0x0(%rax,%rax,1)
  1005d5:	00 00 00 
  1005d8:	66 2e 0f 1f 84 00 00 	nopw   %cs:0x0(%rax,%rax,1)
  1005df:	00 00 00 
  1005e2:	66 2e 0f 1f 84 00 00 	nopw   %cs:0x0(%rax,%rax,1)
  1005e9:	00 00 00 
  1005ec:	66 2e 0f 1f 84 00 00 	nopw   %cs:0x0(%rax,%rax,1)
  1005f3:	00 00 00 
  1005f6:	66 2e 0f 1f 84 00 00 	nopw   %cs:0x0(%rax,%rax,1)
  1005fd:	00 00 00 
  100600:	66 2e 0f 1f 84 00 00 	nopw   %cs:0x0(%rax,%rax,1)
  100607:	00 00 00 
  10060a:	66 2e 0f 1f 84 00 00 	nopw   %cs:0x0(%rax,%rax,1)
  100611:	00 00 00 
  100614:	66 2e 0f 1f 84 00 00 	nopw   %cs:0x0(%rax,%rax,1)
  10061b:	00 00 00 
  10061e:	66 2e 0f 1f 84 00 00 	nopw   %cs:0x0(%rax,%rax,1)
  100625:	00 00 00 
  100628:	66 2e 0f 1f 84 00 00 	nopw   %cs:0x0(%rax,%rax,1)
  10062f:	00 00 00 
  100632:	66 2e 0f 1f 84 00 00 	nopw   %cs:0x0(%rax,%rax,1)
  100639:	00 00 00 
  10063c:	66 2e 0f 1f 84 00 00 	nopw   %cs:0x0(%rax,%rax,1)
  100643:	00 00 00 
  100646:	66 2e 0f 1f 84 00 00 	nopw   %cs:0x0(%rax,%rax,1)
  10064d:	00 00 00 
  100650:	66 2e 0f 1f 84 00 00 	nopw   %cs:0x0(%rax,%rax,1)
  100657:	00 00 00 
  10065a:	66 2e 0f 1f 84 00 00 	nopw   %cs:0x0(%rax,%rax,1)
  100661:	00 00 00 
  100664:	66 2e 0f 1f 84 00 00 	nopw   %cs:0x0(%rax,%rax,1)
  10066b:	00 00 00 
  10066e:	66 2e 0f 1f 84 00 00 	nopw   %cs:0x0(%rax,%rax,1)
  100675:	00 00 00 
  100678:	66 2e 0f 1f 84 00 00 	nopw   %cs:0x0(%rax,%rax,1)
  10067f:	00 00 00 
  100682:	66 2e 0f 1f 84 00 00 	nopw   %cs:0x0(%rax,%rax,1)
  100689:	00 00 00 
  10068c:	66 2e 0f 1f 84 00 00 	nopw   %cs:0x0(%rax,%rax,1)
  100693:	00 00 00 
  100696:	66 2e 0f 1f 84 00 00 	nopw   %cs:0x0(%rax,%rax,1)
  10069d:	00 00 00 
  1006a0:	66 2e 0f 1f 84 00 00 	nopw   %cs:0x0(%rax,%rax,1)
  1006a7:	00 00 00 
  1006aa:	66 2e 0f 1f 84 00 00 	nopw   %cs:0x0(%rax,%rax,1)
  1006b1:	00 00 00 
  1006b4:	66 2e 0f 1f 84 00 00 	nopw   %cs:0x0(%rax,%rax,1)
  1006bb:	00 00 00 
  1006be:	66 2e 0f 1f 84 00 00 	nopw   %cs:0x0(%rax,%rax,1)
  1006c5:	00 00 00 
  1006c8:	66 2e 0f 1f 84 00 00 	nopw   %cs:0x0(%rax,%rax,1)
  1006cf:	00 00 00 
  1006d2:	66 2e 0f 1f 84 00 00 	nopw   %cs:0x0(%rax,%rax,1)
  1006d9:	00 00 00 
  1006dc:	66 2e 0f 1f 84 00 00 	nopw   %cs:0x0(%rax,%rax,1)
  1006e3:	00 00 00 
  1006e6:	66 2e 0f 1f 84 00 00 	nopw   %cs:0x0(%rax,%rax,1)
  1006ed:	00 00 00 
  1006f0:	66 2e 0f 1f 84 00 00 	nopw   %cs:0x0(%rax,%rax,1)
  1006f7:	00 00 00 
  1006fa:	66 2e 0f 1f 84 00 00 	nopw   %cs:0x0(%rax,%rax,1)
  100701:	00 00 00 
  100704:	66 2e 0f 1f 84 00 00 	nopw   %cs:0x0(%rax,%rax,1)
  10070b:	00 00 00 
  10070e:	66 2e 0f 1f 84 00 00 	nopw   %cs:0x0(%rax,%rax,1)
  100715:	00 00 00 
  100718:	66 2e 0f 1f 84 00 00 	nopw   %cs:0x0(%rax,%rax,1)
  10071f:	00 00 00 
  100722:	66 2e 0f 1f 84 00 00 	nopw   %cs:0x0(%rax,%rax,1)
  100729:	00 00 00 
  10072c:	66 2e 0f 1f 84 00 00 	nopw   %cs:0x0(%rax,%rax,1)
  100733:	00 00 00 
  100736:	66 2e 0f 1f 84 00 00 	nopw   %cs:0x0(%rax,%rax,1)
  10073d:	00 00 00 
  100740:	66 2e 0f 1f 84 00 00 	nopw   %cs:0x0(%rax,%rax,1)
  100747:	00 00 00 
  10074a:	66 2e 0f 1f 84 00 00 	nopw   %cs:0x0(%rax,%rax,1)
  100751:	00 00 00 
  100754:	66 2e 0f 1f 84 00 00 	nopw   %cs:0x0(%rax,%rax,1)
  10075b:	00 00 00 
  10075e:	66 2e 0f 1f 84 00 00 	nopw   %cs:0x0(%rax,%rax,1)
  100765:	00 00 00 
  100768:	66 2e 0f 1f 84 00 00 	nopw   %cs:0x0(%rax,%rax,1)
  10076f:	00 00 00 
  100772:	66 2e 0f 1f 84 00 00 	nopw   %cs:0x0(%rax,%rax,1)
  100779:	00 00 00 
  10077c:	66 2e 0f 1f 84 00 00 	nopw   %cs:0x0(%rax,%rax,1)
  100783:	00 00 00 
  100786:	66 2e 0f 1f 84 00 00 	nopw   %cs:0x0(%rax,%rax,1)
  10078d:	00 00 00 
  100790:	66 2e 0f 1f 84 00 00 	nopw   %cs:0x0(%rax,%rax,1)
  100797:	00 00 00 
  10079a:	66 2e 0f 1f 84 00 00 	nopw   %cs:0x0(%rax,%rax,1)
  1007a1:	00 00 00 
  1007a4:	66 2e 0f 1f 84 00 00 	nopw   %cs:0x0(%rax,%rax,1)
  1007ab:	00 00 00 
  1007ae:	66 2e 0f 1f 84 00 00 	nopw   %cs:0x0(%rax,%rax,1)
  1007b5:	00 00 00 
  1007b8:	66 2e 0f 1f 84 00 00 	nopw   %cs:0x0(%rax,%rax,1)
  1007bf:	00 00 00 
  1007c2:	66 2e 0f 1f 84 00 00 	nopw   %cs:0x0(%rax,%rax,1)
  1007c9:	00 00 00 
  1007cc:	66 2e 0f 1f 84 00 00 	nopw   %cs:0x0(%rax,%rax,1)
  1007d3:	00 00 00 
  1007d6:	66 2e 0f 1f 84 00 00 	nopw   %cs:0x0(%rax,%rax,1)
  1007dd:	00 00 00 
  1007e0:	66 2e 0f 1f 84 00 00 	nopw   %cs:0x0(%rax,%rax,1)
  1007e7:	00 00 00 
  1007ea:	66 2e 0f 1f 84 00 00 	nopw   %cs:0x0(%rax,%rax,1)
  1007f1:	00 00 00 
  1007f4:	66 2e 0f 1f 84 00 00 	nopw   %cs:0x0(%rax,%rax,1)
  1007fb:	00 00 00 
  1007fe:	66 2e 0f 1f 84 00 00 	nopw   %cs:0x0(%rax,%rax,1)
  100805:	00 00 00 
  100808:	66 2e 0f 1f 84 00 00 	nopw   %cs:0x0(%rax,%rax,1)
  10080f:	00 00 00 
  100812:	66 2e 0f 1f 84 00 00 	nopw   %cs:0x0(%rax,%rax,1)
  100819:	00 00 00 
  10081c:	66 2e 0f 1f 84 00 00 	nopw   %cs:0x0(%rax,%rax,1)
  100823:	00 00 00 
  100826:	66 2e 0f 1f 84 00 00 	nopw   %cs:0x0(%rax,%rax,1)
  10082d:	00 00 00 
  100830:	66 2e 0f 1f 84 00 00 	nopw   %cs:0x0(%rax,%rax,1)
  100837:	00 00 00 
  10083a:	66 2e 0f 1f 84 00 00 	nopw   %cs:0x0(%rax,%rax,1)
  100841:	00 00 00 
  100844:	66 2e 0f 1f 84 00 00 	nopw   %cs:0x0(%rax,%rax,1)
  10084b:	00 00 00 
  10084e:	66 2e 0f 1f 84 00 00 	nopw   %cs:0x0(%rax,%rax,1)
  100855:	00 00 00 
  100858:	66 2e 0f 1f 84 00 00 	nopw   %cs:0x0(%rax,%rax,1)
  10085f:	00 00 00 
  100862:	66 2e 0f 1f 84 00 00 	nopw   %cs:0x0(%rax,%rax,1)
  100869:	00 00 00 
  10086c:	66 2e 0f 1f 84 00 00 	nopw   %cs:0x0(%rax,%rax,1)
  100873:	00 00 00 
  100876:	66 2e 0f 1f 84 00 00 	nopw   %cs:0x0(%rax,%rax,1)
  10087d:	00 00 00 
  100880:	66 2e 0f 1f 84 00 00 	nopw   %cs:0x0(%rax,%rax,1)
  100887:	00 00 00 
  10088a:	66 2e 0f 1f 84 00 00 	nopw   %cs:0x0(%rax,%rax,1)
  100891:	00 00 00 
  100894:	66 2e 0f 1f 84 00 00 	nopw   %cs:0x0(%rax,%rax,1)
  10089b:	00 00 00 
  10089e:	66 2e 0f 1f 84 00 00 	nopw   %cs:0x0(%rax,%rax,1)
  1008a5:	00 00 00 
  1008a8:	66 2e 0f 1f 84 00 00 	nopw   %cs:0x0(%rax,%rax,1)
  1008af:	00 00 00 
  1008b2:	66 2e 0f 1f 84 00 00 	nopw   %cs:0x0(%rax,%rax,1)
  1008b9:	00 00 00 
  1008bc:	66 2e 0f 1f 84 00 00 	nopw   %cs:0x0(%rax,%rax,1)
  1008c3:	00 00 00 
  1008c6:	66 2e 0f 1f 84 00 00 	nopw   %cs:0x0(%rax,%rax,1)
  1008cd:	00 00 00 
  1008d0:	66 2e 0f 1f 84 00 00 	nopw   %cs:0x0(%rax,%rax,1)
  1008d7:	00 00 00 
  1008da:	66 2e 0f 1f 84 00 00 	nopw   %cs:0x0(%rax,%rax,1)
  1008e1:	00 00 00 
  1008e4:	66 2e 0f 1f 84 00 00 	nopw   %cs:0x0(%rax,%rax,1)
  1008eb:	00 00 00 
  1008ee:	66 2e 0f 1f 84 00 00 	nopw   %cs:0x0(%rax,%rax,1)
  1008f5:	00 00 00 
  1008f8:	66 2e 0f 1f 84 00 00 	nopw   %cs:0x0(%rax,%rax,1)
  1008ff:	00 00 00 
  100902:	66 2e 0f 1f 84 00 00 	nopw   %cs:0x0(%rax,%rax,1)
  100909:	00 00 00 
  10090c:	66 2e 0f 1f 84 00 00 	nopw   %cs:0x0(%rax,%rax,1)
  100913:	00 00 00 
  100916:	66 2e 0f 1f 84 00 00 	nopw   %cs:0x0(%rax,%rax,1)
  10091d:	00 00 00 
  100920:	66 2e 0f 1f 84 00 00 	nopw   %cs:0x0(%rax,%rax,1)
  100927:	00 00 00 
  10092a:	66 2e 0f 1f 84 00 00 	nopw   %cs:0x0(%rax,%rax,1)
  100931:	00 00 00 
  100934:	66 2e 0f 1f 84 00 00 	nopw   %cs:0x0(%rax,%rax,1)
  10093b:	00 00 00 
  10093e:	66 2e 0f 1f 84 00 00 	nopw   %cs:0x0(%rax,%rax,1)
  100945:	00 00 00 
  100948:	66 2e 0f 1f 84 00 00 	nopw   %cs:0x0(%rax,%rax,1)
  10094f:	00 00 00 
  100952:	66 2e 0f 1f 84 00 00 	nopw   %cs:0x0(%rax,%rax,1)
  100959:	00 00 00 
  10095c:	66 2e 0f 1f 84 00 00 	nopw   %cs:0x0(%rax,%rax,1)
  100963:	00 00 00 
  100966:	66 2e 0f 1f 84 00 00 	nopw   %cs:0x0(%rax,%rax,1)
  10096d:	00 00 00 
  100970:	66 2e 0f 1f 84 00 00 	nopw   %cs:0x0(%rax,%rax,1)
  100977:	00 00 00 
  10097a:	66 2e 0f 1f 84 00 00 	nopw   %cs:0x0(%rax,%rax,1)
  100981:	00 00 00 
  100984:	66 2e 0f 1f 84 00 00 	nopw   %cs:0x0(%rax,%rax,1)
  10098b:	00 00 00 
  10098e:	66 2e 0f 1f 84 00 00 	nopw   %cs:0x0(%rax,%rax,1)
  100995:	00 00 00 
  100998:	66 2e 0f 1f 84 00 00 	nopw   %cs:0x0(%rax,%rax,1)
  10099f:	00 00 00 
  1009a2:	66 2e 0f 1f 84 00 00 	nopw   %cs:0x0(%rax,%rax,1)
  1009a9:	00 00 00 
  1009ac:	66 2e 0f 1f 84 00 00 	nopw   %cs:0x0(%rax,%rax,1)
  1009b3:	00 00 00 
  1009b6:	66 2e 0f 1f 84 00 00 	nopw   %cs:0x0(%rax,%rax,1)
  1009bd:	00 00 00 
  1009c0:	66 2e 0f 1f 84 00 00 	nopw   %cs:0x0(%rax,%rax,1)
  1009c7:	00 00 00 
  1009ca:	66 2e 0f 1f 84 00 00 	nopw   %cs:0x0(%rax,%rax,1)
  1009d1:	00 00 00 
  1009d4:	66 2e 0f 1f 84 00 00 	nopw   %cs:0x0(%rax,%rax,1)
  1009db:	00 00 00 
  1009de:	66 2e 0f 1f 84 00 00 	nopw   %cs:0x0(%rax,%rax,1)
  1009e5:	00 00 00 
  1009e8:	66 2e 0f 1f 84 00 00 	nopw   %cs:0x0(%rax,%rax,1)
  1009ef:	00 00 00 
  1009f2:	66 2e 0f 1f 84 00 00 	nopw   %cs:0x0(%rax,%rax,1)
  1009f9:	00 00 00 
  1009fc:	66 2e 0f 1f 84 00 00 	nopw   %cs:0x0(%rax,%rax,1)
  100a03:	00 00 00 
  100a06:	66 2e 0f 1f 84 00 00 	nopw   %cs:0x0(%rax,%rax,1)
  100a0d:	00 00 00 
  100a10:	66 2e 0f 1f 84 00 00 	nopw   %cs:0x0(%rax,%rax,1)
  100a17:	00 00 00 
  100a1a:	66 2e 0f 1f 84 00 00 	nopw   %cs:0x0(%rax,%rax,1)
  100a21:	00 00 00 
  100a24:	66 2e 0f 1f 84 00 00 	nopw   %cs:0x0(%rax,%rax,1)
  100a2b:	00 00 00 
  100a2e:	66 2e 0f 1f 84 00 00 	nopw   %cs:0x0(%rax,%rax,1)
  100a35:	00 00 00 
  100a38:	66 2e 0f 1f 84 00 00 	nopw   %cs:0x0(%rax,%rax,1)
  100a3f:	00 00 00 
  100a42:	66 2e 0f 1f 84 00 00 	nopw   %cs:0x0(%rax,%rax,1)
  100a49:	00 00 00 
  100a4c:	66 2e 0f 1f 84 00 00 	nopw   %cs:0x0(%rax,%rax,1)
  100a53:	00 00 00 
  100a56:	66 2e 0f 1f 84 00 00 	nopw   %cs:0x0(%rax,%rax,1)
  100a5d:	00 00 00 
  100a60:	66 2e 0f 1f 84 00 00 	nopw   %cs:0x0(%rax,%rax,1)
  100a67:	00 00 00 
  100a6a:	66 2e 0f 1f 84 00 00 	nopw   %cs:0x0(%rax,%rax,1)
  100a71:	00 00 00 
  100a74:	66 2e 0f 1f 84 00 00 	nopw   %cs:0x0(%rax,%rax,1)
  100a7b:	00 00 00 
  100a7e:	66 2e 0f 1f 84 00 00 	nopw   %cs:0x0(%rax,%rax,1)
  100a85:	00 00 00 
  100a88:	66 2e 0f 1f 84 00 00 	nopw   %cs:0x0(%rax,%rax,1)
  100a8f:	00 00 00 
  100a92:	66 2e 0f 1f 84 00 00 	nopw   %cs:0x0(%rax,%rax,1)
  100a99:	00 00 00 
  100a9c:	66 2e 0f 1f 84 00 00 	nopw   %cs:0x0(%rax,%rax,1)
  100aa3:	00 00 00 
  100aa6:	66 2e 0f 1f 84 00 00 	nopw   %cs:0x0(%rax,%rax,1)
  100aad:	00 00 00 
  100ab0:	66 2e 0f 1f 84 00 00 	nopw   %cs:0x0(%rax,%rax,1)
  100ab7:	00 00 00 
  100aba:	66 2e 0f 1f 84 00 00 	nopw   %cs:0x0(%rax,%rax,1)
  100ac1:	00 00 00 
  100ac4:	66 2e 0f 1f 84 00 00 	nopw   %cs:0x0(%rax,%rax,1)
  100acb:	00 00 00 
  100ace:	66 2e 0f 1f 84 00 00 	nopw   %cs:0x0(%rax,%rax,1)
  100ad5:	00 00 00 
  100ad8:	66 2e 0f 1f 84 00 00 	nopw   %cs:0x0(%rax,%rax,1)
  100adf:	00 00 00 
  100ae2:	66 2e 0f 1f 84 00 00 	nopw   %cs:0x0(%rax,%rax,1)
  100ae9:	00 00 00 
  100aec:	66 2e 0f 1f 84 00 00 	nopw   %cs:0x0(%rax,%rax,1)
  100af3:	00 00 00 
  100af6:	66 2e 0f 1f 84 00 00 	nopw   %cs:0x0(%rax,%rax,1)
  100afd:	00 00 00 
  100b00:	66 2e 0f 1f 84 00 00 	nopw   %cs:0x0(%rax,%rax,1)
  100b07:	00 00 00 
  100b0a:	66 2e 0f 1f 84 00 00 	nopw   %cs:0x0(%rax,%rax,1)
  100b11:	00 00 00 
  100b14:	66 2e 0f 1f 84 00 00 	nopw   %cs:0x0(%rax,%rax,1)
  100b1b:	00 00 00 
  100b1e:	66 2e 0f 1f 84 00 00 	nopw   %cs:0x0(%rax,%rax,1)
  100b25:	00 00 00 
  100b28:	66 2e 0f 1f 84 00 00 	nopw   %cs:0x0(%rax,%rax,1)
  100b2f:	00 00 00 
  100b32:	66 2e 0f 1f 84 00 00 	nopw   %cs:0x0(%rax,%rax,1)
  100b39:	00 00 00 
  100b3c:	66 2e 0f 1f 84 00 00 	nopw   %cs:0x0(%rax,%rax,1)
  100b43:	00 00 00 
  100b46:	66 2e 0f 1f 84 00 00 	nopw   %cs:0x0(%rax,%rax,1)
  100b4d:	00 00 00 
  100b50:	66 2e 0f 1f 84 00 00 	nopw   %cs:0x0(%rax,%rax,1)
  100b57:	00 00 00 
  100b5a:	66 2e 0f 1f 84 00 00 	nopw   %cs:0x0(%rax,%rax,1)
  100b61:	00 00 00 
  100b64:	66 2e 0f 1f 84 00 00 	nopw   %cs:0x0(%rax,%rax,1)
  100b6b:	00 00 00 
  100b6e:	66 2e 0f 1f 84 00 00 	nopw   %cs:0x0(%rax,%rax,1)
  100b75:	00 00 00 
  100b78:	66 2e 0f 1f 84 00 00 	nopw   %cs:0x0(%rax,%rax,1)
  100b7f:	00 00 00 
  100b82:	66 2e 0f 1f 84 00 00 	nopw   %cs:0x0(%rax,%rax,1)
  100b89:	00 00 00 
  100b8c:	66 2e 0f 1f 84 00 00 	nopw   %cs:0x0(%rax,%rax,1)
  100b93:	00 00 00 
  100b96:	66 2e 0f 1f 84 00 00 	nopw   %cs:0x0(%rax,%rax,1)
  100b9d:	00 00 00 
  100ba0:	66 2e 0f 1f 84 00 00 	nopw   %cs:0x0(%rax,%rax,1)
  100ba7:	00 00 00 
  100baa:	66 2e 0f 1f 84 00 00 	nopw   %cs:0x0(%rax,%rax,1)
  100bb1:	00 00 00 
  100bb4:	66 2e 0f 1f 84 00 00 	nopw   %cs:0x0(%rax,%rax,1)
  100bbb:	00 00 00 
  100bbe:	66 2e 0f 1f 84 00 00 	nopw   %cs:0x0(%rax,%rax,1)
  100bc5:	00 00 00 
  100bc8:	66 2e 0f 1f 84 00 00 	nopw   %cs:0x0(%rax,%rax,1)
  100bcf:	00 00 00 
  100bd2:	66 2e 0f 1f 84 00 00 	nopw   %cs:0x0(%rax,%rax,1)
  100bd9:	00 00 00 
  100bdc:	66 2e 0f 1f 84 00 00 	nopw   %cs:0x0(%rax,%rax,1)
  100be3:	00 00 00 
  100be6:	66 2e 0f 1f 84 00 00 	nopw   %cs:0x0(%rax,%rax,1)
  100bed:	00 00 00 
  100bf0:	66 2e 0f 1f 84 00 00 	nopw   %cs:0x0(%rax,%rax,1)
  100bf7:	00 00 00 
  100bfa:	66 2e 0f 1f 84 00 00 	nopw   %cs:0x0(%rax,%rax,1)
  100c01:	00 00 00 
  100c04:	66 2e 0f 1f 84 00 00 	nopw   %cs:0x0(%rax,%rax,1)
  100c0b:	00 00 00 
  100c0e:	66 2e 0f 1f 84 00 00 	nopw   %cs:0x0(%rax,%rax,1)
  100c15:	00 00 00 
  100c18:	66 2e 0f 1f 84 00 00 	nopw   %cs:0x0(%rax,%rax,1)
  100c1f:	00 00 00 
  100c22:	66 2e 0f 1f 84 00 00 	nopw   %cs:0x0(%rax,%rax,1)
  100c29:	00 00 00 
  100c2c:	66 2e 0f 1f 84 00 00 	nopw   %cs:0x0(%rax,%rax,1)
  100c33:	00 00 00 
  100c36:	66 2e 0f 1f 84 00 00 	nopw   %cs:0x0(%rax,%rax,1)
  100c3d:	00 00 00 
  100c40:	66 2e 0f 1f 84 00 00 	nopw   %cs:0x0(%rax,%rax,1)
  100c47:	00 00 00 
  100c4a:	66 2e 0f 1f 84 00 00 	nopw   %cs:0x0(%rax,%rax,1)
  100c51:	00 00 00 
  100c54:	66 2e 0f 1f 84 00 00 	nopw   %cs:0x0(%rax,%rax,1)
  100c5b:	00 00 00 
  100c5e:	66 2e 0f 1f 84 00 00 	nopw   %cs:0x0(%rax,%rax,1)
  100c65:	00 00 00 
  100c68:	66 2e 0f 1f 84 00 00 	nopw   %cs:0x0(%rax,%rax,1)
  100c6f:	00 00 00 
  100c72:	66 2e 0f 1f 84 00 00 	nopw   %cs:0x0(%rax,%rax,1)
  100c79:	00 00 00 
  100c7c:	66 2e 0f 1f 84 00 00 	nopw   %cs:0x0(%rax,%rax,1)
  100c83:	00 00 00 
  100c86:	66 2e 0f 1f 84 00 00 	nopw   %cs:0x0(%rax,%rax,1)
  100c8d:	00 00 00 
  100c90:	66 2e 0f 1f 84 00 00 	nopw   %cs:0x0(%rax,%rax,1)
  100c97:	00 00 00 
  100c9a:	66 2e 0f 1f 84 00 00 	nopw   %cs:0x0(%rax,%rax,1)
  100ca1:	00 00 00 
  100ca4:	66 2e 0f 1f 84 00 00 	nopw   %cs:0x0(%rax,%rax,1)
  100cab:	00 00 00 
  100cae:	66 2e 0f 1f 84 00 00 	nopw   %cs:0x0(%rax,%rax,1)
  100cb5:	00 00 00 
  100cb8:	66 2e 0f 1f 84 00 00 	nopw   %cs:0x0(%rax,%rax,1)
  100cbf:	00 00 00 
  100cc2:	66 2e 0f 1f 84 00 00 	nopw   %cs:0x0(%rax,%rax,1)
  100cc9:	00 00 00 
  100ccc:	66 2e 0f 1f 84 00 00 	nopw   %cs:0x0(%rax,%rax,1)
  100cd3:	00 00 00 
  100cd6:	66 2e 0f 1f 84 00 00 	nopw   %cs:0x0(%rax,%rax,1)
  100cdd:	00 00 00 
  100ce0:	66 2e 0f 1f 84 00 00 	nopw   %cs:0x0(%rax,%rax,1)
  100ce7:	00 00 00 
  100cea:	66 2e 0f 1f 84 00 00 	nopw   %cs:0x0(%rax,%rax,1)
  100cf1:	00 00 00 
  100cf4:	66 2e 0f 1f 84 00 00 	nopw   %cs:0x0(%rax,%rax,1)
  100cfb:	00 00 00 
  100cfe:	66 2e 0f 1f 84 00 00 	nopw   %cs:0x0(%rax,%rax,1)
  100d05:	00 00 00 
  100d08:	66 2e 0f 1f 84 00 00 	nopw   %cs:0x0(%rax,%rax,1)
  100d0f:	00 00 00 
  100d12:	66 2e 0f 1f 84 00 00 	nopw   %cs:0x0(%rax,%rax,1)
  100d19:	00 00 00 
  100d1c:	66 2e 0f 1f 84 00 00 	nopw   %cs:0x0(%rax,%rax,1)
  100d23:	00 00 00 
  100d26:	66 2e 0f 1f 84 00 00 	nopw   %cs:0x0(%rax,%rax,1)
  100d2d:	00 00 00 
  100d30:	66 2e 0f 1f 84 00 00 	nopw   %cs:0x0(%rax,%rax,1)
  100d37:	00 00 00 
  100d3a:	66 2e 0f 1f 84 00 00 	nopw   %cs:0x0(%rax,%rax,1)
  100d41:	00 00 00 
  100d44:	66 2e 0f 1f 84 00 00 	nopw   %cs:0x0(%rax,%rax,1)
  100d4b:	00 00 00 
  100d4e:	66 2e 0f 1f 84 00 00 	nopw   %cs:0x0(%rax,%rax,1)
  100d55:	00 00 00 
  100d58:	66 2e 0f 1f 84 00 00 	nopw   %cs:0x0(%rax,%rax,1)
  100d5f:	00 00 00 
  100d62:	66 2e 0f 1f 84 00 00 	nopw   %cs:0x0(%rax,%rax,1)
  100d69:	00 00 00 
  100d6c:	66 2e 0f 1f 84 00 00 	nopw   %cs:0x0(%rax,%rax,1)
  100d73:	00 00 00 
  100d76:	66 2e 0f 1f 84 00 00 	nopw   %cs:0x0(%rax,%rax,1)
  100d7d:	00 00 00 
  100d80:	66 2e 0f 1f 84 00 00 	nopw   %cs:0x0(%rax,%rax,1)
  100d87:	00 00 00 
  100d8a:	66 2e 0f 1f 84 00 00 	nopw   %cs:0x0(%rax,%rax,1)
  100d91:	00 00 00 
  100d94:	66 2e 0f 1f 84 00 00 	nopw   %cs:0x0(%rax,%rax,1)
  100d9b:	00 00 00 
  100d9e:	66 2e 0f 1f 84 00 00 	nopw   %cs:0x0(%rax,%rax,1)
  100da5:	00 00 00 
  100da8:	66 2e 0f 1f 84 00 00 	nopw   %cs:0x0(%rax,%rax,1)
  100daf:	00 00 00 
  100db2:	66 2e 0f 1f 84 00 00 	nopw   %cs:0x0(%rax,%rax,1)
  100db9:	00 00 00 
  100dbc:	66 2e 0f 1f 84 00 00 	nopw   %cs:0x0(%rax,%rax,1)
  100dc3:	00 00 00 
  100dc6:	66 2e 0f 1f 84 00 00 	nopw   %cs:0x0(%rax,%rax,1)
  100dcd:	00 00 00 
  100dd0:	66 2e 0f 1f 84 00 00 	nopw   %cs:0x0(%rax,%rax,1)
  100dd7:	00 00 00 
  100dda:	66 2e 0f 1f 84 00 00 	nopw   %cs:0x0(%rax,%rax,1)
  100de1:	00 00 00 
  100de4:	66 2e 0f 1f 84 00 00 	nopw   %cs:0x0(%rax,%rax,1)
  100deb:	00 00 00 
  100dee:	66 2e 0f 1f 84 00 00 	nopw   %cs:0x0(%rax,%rax,1)
  100df5:	00 00 00 
  100df8:	66 2e 0f 1f 84 00 00 	nopw   %cs:0x0(%rax,%rax,1)
  100dff:	00 00 00 
  100e02:	66 2e 0f 1f 84 00 00 	nopw   %cs:0x0(%rax,%rax,1)
  100e09:	00 00 00 
  100e0c:	66 2e 0f 1f 84 00 00 	nopw   %cs:0x0(%rax,%rax,1)
  100e13:	00 00 00 
  100e16:	66 2e 0f 1f 84 00 00 	nopw   %cs:0x0(%rax,%rax,1)
  100e1d:	00 00 00 
  100e20:	66 2e 0f 1f 84 00 00 	nopw   %cs:0x0(%rax,%rax,1)
  100e27:	00 00 00 
  100e2a:	66 2e 0f 1f 84 00 00 	nopw   %cs:0x0(%rax,%rax,1)
  100e31:	00 00 00 
  100e34:	66 2e 0f 1f 84 00 00 	nopw   %cs:0x0(%rax,%rax,1)
  100e3b:	00 00 00 
  100e3e:	66 2e 0f 1f 84 00 00 	nopw   %cs:0x0(%rax,%rax,1)
  100e45:	00 00 00 
  100e48:	66 2e 0f 1f 84 00 00 	nopw   %cs:0x0(%rax,%rax,1)
  100e4f:	00 00 00 
  100e52:	66 2e 0f 1f 84 00 00 	nopw   %cs:0x0(%rax,%rax,1)
  100e59:	00 00 00 
  100e5c:	66 2e 0f 1f 84 00 00 	nopw   %cs:0x0(%rax,%rax,1)
  100e63:	00 00 00 
  100e66:	66 2e 0f 1f 84 00 00 	nopw   %cs:0x0(%rax,%rax,1)
  100e6d:	00 00 00 
  100e70:	66 2e 0f 1f 84 00 00 	nopw   %cs:0x0(%rax,%rax,1)
  100e77:	00 00 00 
  100e7a:	66 2e 0f 1f 84 00 00 	nopw   %cs:0x0(%rax,%rax,1)
  100e81:	00 00 00 
  100e84:	66 2e 0f 1f 84 00 00 	nopw   %cs:0x0(%rax,%rax,1)
  100e8b:	00 00 00 
  100e8e:	66 2e 0f 1f 84 00 00 	nopw   %cs:0x0(%rax,%rax,1)
  100e95:	00 00 00 
  100e98:	66 2e 0f 1f 84 00 00 	nopw   %cs:0x0(%rax,%rax,1)
  100e9f:	00 00 00 
  100ea2:	66 2e 0f 1f 84 00 00 	nopw   %cs:0x0(%rax,%rax,1)
  100ea9:	00 00 00 
  100eac:	66 2e 0f 1f 84 00 00 	nopw   %cs:0x0(%rax,%rax,1)
  100eb3:	00 00 00 
  100eb6:	66 2e 0f 1f 84 00 00 	nopw   %cs:0x0(%rax,%rax,1)
  100ebd:	00 00 00 
  100ec0:	66 2e 0f 1f 84 00 00 	nopw   %cs:0x0(%rax,%rax,1)
  100ec7:	00 00 00 
  100eca:	66 2e 0f 1f 84 00 00 	nopw   %cs:0x0(%rax,%rax,1)
  100ed1:	00 00 00 
  100ed4:	66 2e 0f 1f 84 00 00 	nopw   %cs:0x0(%rax,%rax,1)
  100edb:	00 00 00 
  100ede:	66 2e 0f 1f 84 00 00 	nopw   %cs:0x0(%rax,%rax,1)
  100ee5:	00 00 00 
  100ee8:	66 2e 0f 1f 84 00 00 	nopw   %cs:0x0(%rax,%rax,1)
  100eef:	00 00 00 
  100ef2:	66 2e 0f 1f 84 00 00 	nopw   %cs:0x0(%rax,%rax,1)
  100ef9:	00 00 00 
  100efc:	66 2e 0f 1f 84 00 00 	nopw   %cs:0x0(%rax,%rax,1)
  100f03:	00 00 00 
  100f06:	66 2e 0f 1f 84 00 00 	nopw   %cs:0x0(%rax,%rax,1)
  100f0d:	00 00 00 
  100f10:	66 2e 0f 1f 84 00 00 	nopw   %cs:0x0(%rax,%rax,1)
  100f17:	00 00 00 
  100f1a:	66 2e 0f 1f 84 00 00 	nopw   %cs:0x0(%rax,%rax,1)
  100f21:	00 00 00 
  100f24:	66 2e 0f 1f 84 00 00 	nopw   %cs:0x0(%rax,%rax,1)
  100f2b:	00 00 00 
  100f2e:	66 2e 0f 1f 84 00 00 	nopw   %cs:0x0(%rax,%rax,1)
  100f35:	00 00 00 
  100f38:	66 2e 0f 1f 84 00 00 	nopw   %cs:0x0(%rax,%rax,1)
  100f3f:	00 00 00 
  100f42:	66 2e 0f 1f 84 00 00 	nopw   %cs:0x0(%rax,%rax,1)
  100f49:	00 00 00 
  100f4c:	66 2e 0f 1f 84 00 00 	nopw   %cs:0x0(%rax,%rax,1)
  100f53:	00 00 00 
  100f56:	66 2e 0f 1f 84 00 00 	nopw   %cs:0x0(%rax,%rax,1)
  100f5d:	00 00 00 
  100f60:	66 2e 0f 1f 84 00 00 	nopw   %cs:0x0(%rax,%rax,1)
  100f67:	00 00 00 
  100f6a:	66 2e 0f 1f 84 00 00 	nopw   %cs:0x0(%rax,%rax,1)
  100f71:	00 00 00 
  100f74:	66 2e 0f 1f 84 00 00 	nopw   %cs:0x0(%rax,%rax,1)
  100f7b:	00 00 00 
  100f7e:	66 2e 0f 1f 84 00 00 	nopw   %cs:0x0(%rax,%rax,1)
  100f85:	00 00 00 
  100f88:	66 2e 0f 1f 84 00 00 	nopw   %cs:0x0(%rax,%rax,1)
  100f8f:	00 00 00 
  100f92:	66 2e 0f 1f 84 00 00 	nopw   %cs:0x0(%rax,%rax,1)
  100f99:	00 00 00 
  100f9c:	66 2e 0f 1f 84 00 00 	nopw   %cs:0x0(%rax,%rax,1)
  100fa3:	00 00 00 
  100fa6:	66 2e 0f 1f 84 00 00 	nopw   %cs:0x0(%rax,%rax,1)
  100fad:	00 00 00 
  100fb0:	66 2e 0f 1f 84 00 00 	nopw   %cs:0x0(%rax,%rax,1)
  100fb7:	00 00 00 
  100fba:	66 2e 0f 1f 84 00 00 	nopw   %cs:0x0(%rax,%rax,1)
  100fc1:	00 00 00 
  100fc4:	66 2e 0f 1f 84 00 00 	nopw   %cs:0x0(%rax,%rax,1)
  100fcb:	00 00 00 
  100fce:	66 2e 0f 1f 84 00 00 	nopw   %cs:0x0(%rax,%rax,1)
  100fd5:	00 00 00 
  100fd8:	66 2e 0f 1f 84 00 00 	nopw   %cs:0x0(%rax,%rax,1)
  100fdf:	00 00 00 
  100fe2:	66 2e 0f 1f 84 00 00 	nopw   %cs:0x0(%rax,%rax,1)
  100fe9:	00 00 00 
  100fec:	66 2e 0f 1f 84 00 00 	nopw   %cs:0x0(%rax,%rax,1)
  100ff3:	00 00 00 
  100ff6:	66 2e 0f 1f 84 00 00 	nopw   %cs:0x0(%rax,%rax,1)
  100ffd:	00 00 00 

0000000000101000 <gdt_64>:
	...
  101008:	ff                   	(bad)  
  101009:	ff 00                	incl   (%rax)
  10100b:	00 00                	add    %al,(%rax)
  10100d:	9a                   	(bad)  
  10100e:	af                   	scas   %es:(%rdi),%eax
  10100f:	00 ff                	add    %bh,%bh
  101011:	ff 00                	incl   (%rax)
  101013:	00 00                	add    %al,(%rax)
  101015:	92                   	xchg   %eax,%edx
  101016:	cf                   	iret   
	...

0000000000101018 <gdtdesc_64>:
  101018:	17                   	(bad)  
  101019:	00 00                	add    %al,(%rax)
  10101b:	10 10                	adc    %dl,(%rax)
	...

0000000000102000 <pml4phys>:
	...

0000000000103000 <pdpt1>:
	...

0000000000104000 <pdpt2>:
	...

0000000000105000 <pde1>:
	...

0000000000106000 <pde2>:
	...

0000000000107000 <multiboot_info>:
  107000:	00 00                	add    %al,(%rax)
	...

Disassembly of section .text:

0000008004200000 <_start+0x8003fffff4>:
  8004200000:	02 b0 ad 1b 00 00    	add    0x1bad(%rax),%dh
  8004200006:	00 00                	add    %al,(%rax)
  8004200008:	fe 4f 52             	decb   0x52(%rdi)
  800420000b:	e4 48                	in     $0x48,%al

000000800420000c <entry>:
entry:

/* .globl _back_from_head64 */
/* _back_from_head64: */

    movabs   $gdtdesc_64,%rax
  800420000c:	48 b8 38 b0 22 04 80 	movabs $0x800422b038,%rax
  8004200013:	00 00 00 
    lgdt     (%rax)
  8004200016:	0f 01 10             	lgdt   (%rax)
    movw    $DATA_SEL,%ax
  8004200019:	66 b8 10 00          	mov    $0x10,%ax
    movw    %ax,%ds
  800420001d:	8e d8                	mov    %eax,%ds
    movw    %ax,%ss
  800420001f:	8e d0                	mov    %eax,%ss
    movw    %ax,%fs
  8004200021:	8e e0                	mov    %eax,%fs
    movw    %ax,%gs
  8004200023:	8e e8                	mov    %eax,%gs
    movw    %ax,%es
  8004200025:	8e c0                	mov    %eax,%es
    pushq   $CODE_SEL
  8004200027:	6a 08                	pushq  $0x8
    movabs  $relocated,%rax
  8004200029:	48 b8 36 00 20 04 80 	movabs $0x8004200036,%rax
  8004200030:	00 00 00 
    pushq   %rax
  8004200033:	50                   	push   %rax
    lretq
  8004200034:	48 cb                	lretq  

0000008004200036 <relocated>:
relocated:

	# Clear the frame pointer register (RBP)
	# so that once we get into debugging C code,
	# stack backtraces will be terminated properly.
	movq	$0x0,%rbp			# nuke frame pointer
  8004200036:	48 c7 c5 00 00 00 00 	mov    $0x0,%rbp

	# Set the stack pointer
	movabs	$(bootstacktop),%rax
  800420003d:	48 b8 00 b0 22 04 80 	movabs $0x800422b000,%rax
  8004200044:	00 00 00 
	movq  %rax,%rsp
  8004200047:	48 89 c4             	mov    %rax,%rsp

	# now to C code
    movabs $i386_init, %rax
  800420004a:	48 b8 9e 01 20 04 80 	movabs $0x800420019e,%rax
  8004200051:	00 00 00 
	call *%rax
  8004200054:	ff d0                	callq  *%rax

0000008004200056 <spin>:

	# Should never get here, but in case we do, just spin.
spin:	jmp	spin
  8004200056:	eb fe                	jmp    8004200056 <spin>

0000008004200058 <cpuid>:

#define read_rip(var) __asm __volatile("leaq (%%rip), %0" : "=r" (var)::"cc","memory")

static __inline void
cpuid(uint32_t info, uint32_t *eaxp, uint32_t *ebxp, uint32_t *ecxp, uint32_t *edxp)
{
  8004200058:	55                   	push   %rbp
  8004200059:	48 89 e5             	mov    %rsp,%rbp
  800420005c:	53                   	push   %rbx
  800420005d:	48 83 ec 38          	sub    $0x38,%rsp
  8004200061:	89 7d e4             	mov    %edi,-0x1c(%rbp)
  8004200064:	48 89 75 d8          	mov    %rsi,-0x28(%rbp)
  8004200068:	48 89 55 d0          	mov    %rdx,-0x30(%rbp)
  800420006c:	48 89 4d c8          	mov    %rcx,-0x38(%rbp)
  8004200070:	4c 89 45 c0          	mov    %r8,-0x40(%rbp)
	uint32_t eax, ebx, ecx, edx;
	asm volatile("cpuid" 
  8004200074:	8b 45 e4             	mov    -0x1c(%rbp),%eax
  8004200077:	0f a2                	cpuid  
  8004200079:	89 de                	mov    %ebx,%esi
  800420007b:	89 45 f4             	mov    %eax,-0xc(%rbp)
  800420007e:	89 75 f0             	mov    %esi,-0x10(%rbp)
  8004200081:	89 4d ec             	mov    %ecx,-0x14(%rbp)
  8004200084:	89 55 e8             	mov    %edx,-0x18(%rbp)
		     : "=a" (eax), "=b" (ebx), "=c" (ecx), "=d" (edx)
		     : "a" (info));
	if (eaxp)
  8004200087:	48 83 7d d8 00       	cmpq   $0x0,-0x28(%rbp)
  800420008c:	74 09                	je     8004200097 <cpuid+0x3f>
		*eaxp = eax;
  800420008e:	48 8b 45 d8          	mov    -0x28(%rbp),%rax
  8004200092:	8b 55 f4             	mov    -0xc(%rbp),%edx
  8004200095:	89 10                	mov    %edx,(%rax)
	if (ebxp)
  8004200097:	48 83 7d d0 00       	cmpq   $0x0,-0x30(%rbp)
  800420009c:	74 09                	je     80042000a7 <cpuid+0x4f>
		*ebxp = ebx;
  800420009e:	48 8b 45 d0          	mov    -0x30(%rbp),%rax
  80042000a2:	8b 55 f0             	mov    -0x10(%rbp),%edx
  80042000a5:	89 10                	mov    %edx,(%rax)
	if (ecxp)
  80042000a7:	48 83 7d c8 00       	cmpq   $0x0,-0x38(%rbp)
  80042000ac:	74 09                	je     80042000b7 <cpuid+0x5f>
		*ecxp = ecx;
  80042000ae:	48 8b 45 c8          	mov    -0x38(%rbp),%rax
  80042000b2:	8b 55 ec             	mov    -0x14(%rbp),%edx
  80042000b5:	89 10                	mov    %edx,(%rax)
	if (edxp)
  80042000b7:	48 83 7d c0 00       	cmpq   $0x0,-0x40(%rbp)
  80042000bc:	74 09                	je     80042000c7 <cpuid+0x6f>
		*edxp = edx;
  80042000be:	48 8b 45 c0          	mov    -0x40(%rbp),%rax
  80042000c2:	8b 55 e8             	mov    -0x18(%rbp),%edx
  80042000c5:	89 10                	mov    %edx,(%rax)
}
  80042000c7:	48 83 c4 38          	add    $0x38,%rsp
  80042000cb:	5b                   	pop    %rbx
  80042000cc:	5d                   	pop    %rbp
  80042000cd:	c3                   	retq   

00000080042000ce <xchg>:

static inline uint32_t
xchg(volatile uint32_t *addr,uint32_t newval){
  80042000ce:	55                   	push   %rbp
  80042000cf:	48 89 e5             	mov    %rsp,%rbp
  80042000d2:	48 83 ec 1c          	sub    $0x1c,%rsp
  80042000d6:	48 89 7d e8          	mov    %rdi,-0x18(%rbp)
  80042000da:	89 75 e4             	mov    %esi,-0x1c(%rbp)
	uint32_t result;
	__asm __volatile("lock; xchgl %0, %1":
  80042000dd:	48 8b 55 e8          	mov    -0x18(%rbp),%rdx
  80042000e1:	8b 45 e4             	mov    -0x1c(%rbp),%eax
  80042000e4:	48 8b 4d e8          	mov    -0x18(%rbp),%rcx
  80042000e8:	f0 87 02             	lock xchg %eax,(%rdx)
  80042000eb:	89 45 fc             	mov    %eax,-0x4(%rbp)
			 "+m" (*addr), "=a" (result):
			 "1"(newval):
			 "cc");
	return result;
  80042000ee:	8b 45 fc             	mov    -0x4(%rbp),%eax
}
  80042000f1:	c9                   	leaveq 
  80042000f2:	c3                   	retq   

00000080042000f3 <lock_kernel>:

extern struct spinlock kernel_lock;

static inline void
lock_kernel(void)
{
  80042000f3:	55                   	push   %rbp
  80042000f4:	48 89 e5             	mov    %rsp,%rbp
	spin_lock(&kernel_lock);
  80042000f7:	48 bf 60 b9 22 04 80 	movabs $0x800422b960,%rdi
  80042000fe:	00 00 00 
  8004200101:	48 b8 e5 61 21 04 80 	movabs $0x80042161e5,%rax
  8004200108:	00 00 00 
  800420010b:	ff d0                	callq  *%rax
}
  800420010d:	5d                   	pop    %rbp
  800420010e:	c3                   	retq   

000000800420010f <vmcall>:
#ifdef VMM_GUEST

static void boot_virtual_aps(void);

int64_t vmcall(int num, int check, uint64_t a1, uint64_t a2, uint64_t a3, uint64_t a4, uint64_t a5)
{
  800420010f:	55                   	push   %rbp
  8004200110:	48 89 e5             	mov    %rsp,%rbp
  8004200113:	53                   	push   %rbx
  8004200114:	48 83 ec 48          	sub    $0x48,%rsp
  8004200118:	89 7d dc             	mov    %edi,-0x24(%rbp)
  800420011b:	89 75 d8             	mov    %esi,-0x28(%rbp)
  800420011e:	48 89 55 d0          	mov    %rdx,-0x30(%rbp)
  8004200122:	48 89 4d c8          	mov    %rcx,-0x38(%rbp)
  8004200126:	4c 89 45 c0          	mov    %r8,-0x40(%rbp)
  800420012a:	4c 89 4d b8          	mov    %r9,-0x48(%rbp)
    int64_t ret;
    asm volatile("vmcall\n" : "=a" (ret) : "a" (num), "d" (a1), "c" (a2), "b" (a3), "D" (a4), "S" (a5) : "cc", "memory");
  800420012e:	8b 45 dc             	mov    -0x24(%rbp),%eax
  8004200131:	48 8b 55 d0          	mov    -0x30(%rbp),%rdx
  8004200135:	48 8b 4d c8          	mov    -0x38(%rbp),%rcx
  8004200139:	4c 8b 45 c0          	mov    -0x40(%rbp),%r8
  800420013d:	48 8b 7d b8          	mov    -0x48(%rbp),%rdi
  8004200141:	48 8b 75 10          	mov    0x10(%rbp),%rsi
  8004200145:	4c 89 c3             	mov    %r8,%rbx
  8004200148:	0f 01 c1             	vmcall 
  800420014b:	48 89 45 e8          	mov    %rax,-0x18(%rbp)
    if(check && ret > 0) panic("vmcall %d returned %d (> 0)", num, ret);
  800420014f:	83 7d d8 00          	cmpl   $0x0,-0x28(%rbp)
  8004200153:	74 3e                	je     8004200193 <vmcall+0x84>
  8004200155:	48 83 7d e8 00       	cmpq   $0x0,-0x18(%rbp)
  800420015a:	7e 37                	jle    8004200193 <vmcall+0x84>
  800420015c:	48 8b 55 e8          	mov    -0x18(%rbp),%rdx
  8004200160:	8b 45 dc             	mov    -0x24(%rbp),%eax
  8004200163:	49 89 d0             	mov    %rdx,%r8
  8004200166:	89 c1                	mov    %eax,%ecx
  8004200168:	48 ba c0 70 21 04 80 	movabs $0x80042170c0,%rdx
  800420016f:	00 00 00 
  8004200172:	be 28 00 00 00       	mov    $0x28,%esi
  8004200177:	48 bf dc 70 21 04 80 	movabs $0x80042170dc,%rdi
  800420017e:	00 00 00 
  8004200181:	b8 00 00 00 00       	mov    $0x0,%eax
  8004200186:	49 b9 08 06 20 04 80 	movabs $0x8004200608,%r9
  800420018d:	00 00 00 
  8004200190:	41 ff d1             	callq  *%r9
    return ret;
  8004200193:	48 8b 45 e8          	mov    -0x18(%rbp),%rax
}
  8004200197:	48 83 c4 48          	add    $0x48,%rsp
  800420019b:	5b                   	pop    %rbx
  800420019c:	5d                   	pop    %rbp
  800420019d:	c3                   	retq   

000000800420019e <i386_init>:
#endif


void
i386_init(void)
{
  800420019e:	55                   	push   %rbp
  800420019f:	48 89 e5             	mov    %rsp,%rbp
  80042001a2:	48 83 ec 10          	sub    $0x10,%rsp
	extern char edata[], end[];

	// Before doing anything else, complete the ELF loading process.
	// Clear the uninitialized global data (BSS) section of our program.
	// This ensures that all static/global variables start out zero.
	memset(edata, 0, end - edata);
  80042001a6:	48 ba 10 80 3b 04 80 	movabs $0x80043b8010,%rdx
  80042001ad:	00 00 00 
  80042001b0:	48 b8 3e 34 37 04 80 	movabs $0x800437343e,%rax
  80042001b7:	00 00 00 
  80042001ba:	48 29 c2             	sub    %rax,%rdx
  80042001bd:	48 89 d0             	mov    %rdx,%rax
  80042001c0:	48 89 c2             	mov    %rax,%rdx
  80042001c3:	be 00 00 00 00       	mov    $0x0,%esi
  80042001c8:	48 bf 3e 34 37 04 80 	movabs $0x800437343e,%rdi
  80042001cf:	00 00 00 
  80042001d2:	48 b8 50 ee 20 04 80 	movabs $0x800420ee50,%rax
  80042001d9:	00 00 00 
  80042001dc:	ff d0                	callq  *%rax

	// Initialize the console.
	// Can't call cprintf until after we do this!
	cons_init();
  80042001de:	48 b8 07 13 20 04 80 	movabs $0x8004201307,%rax
  80042001e5:	00 00 00 
  80042001e8:	ff d0                	callq  *%rax

	cprintf("6828 decimal is %o octal!\n", 6828);
  80042001ea:	be ac 1a 00 00       	mov    $0x1aac,%esi
  80042001ef:	48 bf e8 70 21 04 80 	movabs $0x80042170e8,%rdi
  80042001f6:	00 00 00 
  80042001f9:	b8 00 00 00 00       	mov    $0x0,%eax
  80042001fe:	48 ba 7f 97 20 04 80 	movabs $0x800420977f,%rdx
  8004200205:	00 00 00 
  8004200208:	ff d2                	callq  *%rdx

#ifdef VMM_GUEST
	/* Guest VMX extension exposure check */
	{
		uint32_t ecx = 0;
  800420020a:	c7 45 fc 00 00 00 00 	movl   $0x0,-0x4(%rbp)
		cpuid(0x1, NULL, NULL, &ecx, NULL);
  8004200211:	48 8d 45 fc          	lea    -0x4(%rbp),%rax
  8004200215:	41 b8 00 00 00 00    	mov    $0x0,%r8d
  800420021b:	48 89 c1             	mov    %rax,%rcx
  800420021e:	ba 00 00 00 00       	mov    $0x0,%edx
  8004200223:	be 00 00 00 00       	mov    $0x0,%esi
  8004200228:	bf 01 00 00 00       	mov    $0x1,%edi
  800420022d:	48 b8 58 00 20 04 80 	movabs $0x8004200058,%rax
  8004200234:	00 00 00 
  8004200237:	ff d0                	callq  *%rax
		if (ecx & 0x20)
  8004200239:	8b 45 fc             	mov    -0x4(%rbp),%eax
  800420023c:	83 e0 20             	and    $0x20,%eax
  800420023f:	85 c0                	test   %eax,%eax
  8004200241:	74 2a                	je     800420026d <i386_init+0xcf>
			panic("[ERR] VMX extension exposed to guest.\n");
  8004200243:	48 ba 08 71 21 04 80 	movabs $0x8004217108,%rdx
  800420024a:	00 00 00 
  800420024d:	be 46 00 00 00       	mov    $0x46,%esi
  8004200252:	48 bf dc 70 21 04 80 	movabs $0x80042170dc,%rdi
  8004200259:	00 00 00 
  800420025c:	b8 00 00 00 00       	mov    $0x0,%eax
  8004200261:	48 b9 08 06 20 04 80 	movabs $0x8004200608,%rcx
  8004200268:	00 00 00 
  800420026b:	ff d1                	callq  *%rcx
		else
			cprintf("VMX extension hidden from guest.\n");
  800420026d:	48 bf 30 71 21 04 80 	movabs $0x8004217130,%rdi
  8004200274:	00 00 00 
  8004200277:	b8 00 00 00 00       	mov    $0x0,%eax
  800420027c:	48 ba 7f 97 20 04 80 	movabs $0x800420977f,%rdx
  8004200283:	00 00 00 
  8004200286:	ff d2                	callq  *%rdx
	extern char end[];
	end_debug = read_section_headers((0x10000+KERNBASE), (uintptr_t)end); 
#endif

	// Lab 2 memory management initialization functions
	x64_vm_init();
  8004200288:	b8 00 00 00 00       	mov    $0x0,%eax
  800420028d:	48 ba 9d 31 20 04 80 	movabs $0x800420319d,%rdx
  8004200294:	00 00 00 
  8004200297:	ff d2                	callq  *%rdx

	// Lab 3 user environment initialization functions
	env_init();
  8004200299:	48 b8 4b 84 20 04 80 	movabs $0x800420844b,%rax
  80042002a0:	00 00 00 
  80042002a3:	ff d0                	callq  *%rax
	trap_init();
  80042002a5:	48 b8 f7 98 20 04 80 	movabs $0x80042098f7,%rax
  80042002ac:	00 00 00 
  80042002af:	ff d0                	callq  *%rax
	mp_init();
	lapic_init();
#endif

	// Lab 4 multitasking initialization functions
	pic_init();
  80042002b1:	48 b8 7f 94 20 04 80 	movabs $0x800420947f,%rax
  80042002b8:	00 00 00 
  80042002bb:	ff d0                	callq  *%rax

	// Lab 6 hardware initialization functions
	time_init();
  80042002bd:	48 b8 00 70 21 04 80 	movabs $0x8004217000,%rax
  80042002c4:	00 00 00 
  80042002c7:	ff d0                	callq  *%rax
	pci_init();
  80042002c9:	48 b8 c4 6f 21 04 80 	movabs $0x8004216fc4,%rax
  80042002d0:	00 00 00 
  80042002d3:	ff d0                	callq  *%rax


	


	lock_kernel();
  80042002d5:	48 b8 f3 00 20 04 80 	movabs $0x80042000f3,%rax
  80042002dc:	00 00 00 
  80042002df:	ff d0                	callq  *%rax
	// Starting non-boot CPUs
	boot_aps();
  80042002e1:	48 b8 3b 03 20 04 80 	movabs $0x800420033b,%rax
  80042002e8:	00 00 00 
  80042002eb:	ff d0                	callq  *%rax
// Start fs.

	ENV_CREATE(fs_fs, ENV_TYPE_FS);
  80042002ed:	be 01 00 00 00       	mov    $0x1,%esi
  80042002f2:	48 bf 07 0d 2a 04 80 	movabs $0x80042a0d07,%rdi
  80042002f9:	00 00 00 
  80042002fc:	48 b8 16 8b 20 04 80 	movabs $0x8004208b16,%rax
  8004200303:	00 00 00 
  8004200306:	ff d0                	callq  *%rax
	// Touch all you want.
#if defined(TEST_EPT_MAP)
	test_ept_map();
#endif

	ENV_CREATE(user_icode, ENV_TYPE_USER);
  8004200308:	be 00 00 00 00       	mov    $0x0,%esi
  800420030d:	48 bf 48 c1 28 04 80 	movabs $0x800428c148,%rdi
  8004200314:	00 00 00 
  8004200317:	48 b8 16 8b 20 04 80 	movabs $0x8004208b16,%rax
  800420031e:	00 00 00 
  8004200321:	ff d0                	callq  *%rax


#endif // TEST*

	// Should not be necessary - drains keyboard because interrupt has given up.
	kbd_intr();
  8004200323:	48 b8 39 11 20 04 80 	movabs $0x8004201139,%rax
  800420032a:	00 00 00 
  800420032d:	ff d0                	callq  *%rax


	// Schedule and run the first user environment!
	sched_yield();
  800420032f:	48 b8 3a c2 20 04 80 	movabs $0x800420c23a,%rax
  8004200336:	00 00 00 
  8004200339:	ff d0                	callq  *%rax

000000800420033b <boot_aps>:
void *mpentry_kstack;

// Start the non-boot (AP) processors.
static void
boot_aps(void)
{
  800420033b:	55                   	push   %rbp
  800420033c:	48 89 e5             	mov    %rsp,%rbp
  800420033f:	48 83 ec 30          	sub    $0x30,%rsp
	extern unsigned char mpentry_start[], mpentry_end[];
	void *code;
	struct CpuInfo *c;

	// Write entry code to unused memory at MPENTRY_PADDR
	code = KADDR(MPENTRY_PADDR);
  8004200343:	48 c7 45 f0 00 70 00 	movq   $0x7000,-0x10(%rbp)
  800420034a:	00 
  800420034b:	48 8b 45 f0          	mov    -0x10(%rbp),%rax
  800420034f:	48 c1 e8 0c          	shr    $0xc,%rax
  8004200353:	89 45 ec             	mov    %eax,-0x14(%rbp)
  8004200356:	8b 55 ec             	mov    -0x14(%rbp),%edx
  8004200359:	48 b8 78 57 37 04 80 	movabs $0x8004375778,%rax
  8004200360:	00 00 00 
  8004200363:	48 8b 00             	mov    (%rax),%rax
  8004200366:	48 39 c2             	cmp    %rax,%rdx
  8004200369:	72 32                	jb     800420039d <boot_aps+0x62>
  800420036b:	48 8b 45 f0          	mov    -0x10(%rbp),%rax
  800420036f:	48 89 c1             	mov    %rax,%rcx
  8004200372:	48 ba 58 71 21 04 80 	movabs $0x8004217158,%rdx
  8004200379:	00 00 00 
  800420037c:	be 9f 00 00 00       	mov    $0x9f,%esi
  8004200381:	48 bf dc 70 21 04 80 	movabs $0x80042170dc,%rdi
  8004200388:	00 00 00 
  800420038b:	b8 00 00 00 00       	mov    $0x0,%eax
  8004200390:	49 b8 08 06 20 04 80 	movabs $0x8004200608,%r8
  8004200397:	00 00 00 
  800420039a:	41 ff d0             	callq  *%r8
  800420039d:	48 ba 00 00 00 04 80 	movabs $0x8004000000,%rdx
  80042003a4:	00 00 00 
  80042003a7:	48 8b 45 f0          	mov    -0x10(%rbp),%rax
  80042003ab:	48 01 d0             	add    %rdx,%rax
  80042003ae:	48 89 45 e0          	mov    %rax,-0x20(%rbp)
	memmove(code, mpentry_start, mpentry_end - mpentry_start);
  80042003b2:	48 ba 2e 53 21 04 80 	movabs $0x800421532e,%rdx
  80042003b9:	00 00 00 
  80042003bc:	48 b8 48 52 21 04 80 	movabs $0x8004215248,%rax
  80042003c3:	00 00 00 
  80042003c6:	48 29 c2             	sub    %rax,%rdx
  80042003c9:	48 89 d0             	mov    %rdx,%rax
  80042003cc:	48 89 c2             	mov    %rax,%rdx
  80042003cf:	48 8b 45 e0          	mov    -0x20(%rbp),%rax
  80042003d3:	48 be 48 52 21 04 80 	movabs $0x8004215248,%rsi
  80042003da:	00 00 00 
  80042003dd:	48 89 c7             	mov    %rax,%rdi
  80042003e0:	48 b8 db ee 20 04 80 	movabs $0x800420eedb,%rax
  80042003e7:	00 00 00 
  80042003ea:	ff d0                	callq  *%rax
	// Boot each AP one at a time
	for (c = cpus; c < cpus + ncpu; c++) {
  80042003ec:	48 b8 20 70 37 04 80 	movabs $0x8004377020,%rax
  80042003f3:	00 00 00 
  80042003f6:	48 89 45 f8          	mov    %rax,-0x8(%rbp)
  80042003fa:	e9 0e 01 00 00       	jmpq   800420050d <boot_aps+0x1d2>
		if (c == cpus + cpunum())  // We've started already.
  80042003ff:	48 b8 5a 5e 21 04 80 	movabs $0x8004215e5a,%rax
  8004200406:	00 00 00 
  8004200409:	ff d0                	callq  *%rax
  800420040b:	48 98                	cltq   
  800420040d:	48 c1 e0 03          	shl    $0x3,%rax
  8004200411:	48 89 c2             	mov    %rax,%rdx
  8004200414:	48 c1 e2 04          	shl    $0x4,%rdx
  8004200418:	48 01 c2             	add    %rax,%rdx
  800420041b:	48 b8 20 70 37 04 80 	movabs $0x8004377020,%rax
  8004200422:	00 00 00 
  8004200425:	48 01 d0             	add    %rdx,%rax
  8004200428:	48 3b 45 f8          	cmp    -0x8(%rbp),%rax
  800420042c:	75 05                	jne    8004200433 <boot_aps+0xf8>
			continue;
  800420042e:	e9 d2 00 00 00       	jmpq   8004200505 <boot_aps+0x1ca>

		// Tell mpentry.S what stack to use 
		mpentry_kstack = percpu_kstacks[c - cpus] + KSTKSIZE;
  8004200433:	48 8b 55 f8          	mov    -0x8(%rbp),%rdx
  8004200437:	48 b8 20 70 37 04 80 	movabs $0x8004377020,%rax
  800420043e:	00 00 00 
  8004200441:	48 29 c2             	sub    %rax,%rdx
  8004200444:	48 89 d0             	mov    %rdx,%rax
  8004200447:	48 c1 f8 03          	sar    $0x3,%rax
  800420044b:	48 89 c2             	mov    %rax,%rdx
  800420044e:	48 b8 f1 f0 f0 f0 f0 	movabs $0xf0f0f0f0f0f0f0f1,%rax
  8004200455:	f0 f0 f0 
  8004200458:	48 0f af c2          	imul   %rdx,%rax
  800420045c:	48 83 c0 01          	add    $0x1,%rax
  8004200460:	48 c1 e0 10          	shl    $0x10,%rax
  8004200464:	48 89 c2             	mov    %rax,%rdx
  8004200467:	48 b8 00 80 37 04 80 	movabs $0x8004378000,%rax
  800420046e:	00 00 00 
  8004200471:	48 01 c2             	add    %rax,%rdx
  8004200474:	48 b8 58 57 37 04 80 	movabs $0x8004375758,%rax
  800420047b:	00 00 00 
  800420047e:	48 89 10             	mov    %rdx,(%rax)
		// Start the CPU at mpentry_start
		lapic_startap(c->cpu_id, PADDR(code));
  8004200481:	48 8b 45 e0          	mov    -0x20(%rbp),%rax
  8004200485:	48 89 45 d8          	mov    %rax,-0x28(%rbp)
  8004200489:	48 b8 ff ff ff 03 80 	movabs $0x8003ffffff,%rax
  8004200490:	00 00 00 
  8004200493:	48 39 45 d8          	cmp    %rax,-0x28(%rbp)
  8004200497:	77 32                	ja     80042004cb <boot_aps+0x190>
  8004200499:	48 8b 45 d8          	mov    -0x28(%rbp),%rax
  800420049d:	48 89 c1             	mov    %rax,%rcx
  80042004a0:	48 ba 80 71 21 04 80 	movabs $0x8004217180,%rdx
  80042004a7:	00 00 00 
  80042004aa:	be a9 00 00 00       	mov    $0xa9,%esi
  80042004af:	48 bf dc 70 21 04 80 	movabs $0x80042170dc,%rdi
  80042004b6:	00 00 00 
  80042004b9:	b8 00 00 00 00       	mov    $0x0,%eax
  80042004be:	49 b8 08 06 20 04 80 	movabs $0x8004200608,%r8
  80042004c5:	00 00 00 
  80042004c8:	41 ff d0             	callq  *%r8
  80042004cb:	48 ba 00 00 00 fc 7f 	movabs $0xffffff7ffc000000,%rdx
  80042004d2:	ff ff ff 
  80042004d5:	48 8b 45 d8          	mov    -0x28(%rbp),%rax
  80042004d9:	48 01 d0             	add    %rdx,%rax
  80042004dc:	89 c2                	mov    %eax,%edx
  80042004de:	48 8b 45 f8          	mov    -0x8(%rbp),%rax
  80042004e2:	0f b6 00             	movzbl (%rax),%eax
  80042004e5:	0f b6 c0             	movzbl %al,%eax
  80042004e8:	89 d6                	mov    %edx,%esi
  80042004ea:	89 c7                	mov    %eax,%edi
  80042004ec:	48 b8 ca 5e 21 04 80 	movabs $0x8004215eca,%rax
  80042004f3:	00 00 00 
  80042004f6:	ff d0                	callq  *%rax
		// Wait for the CPU to finish some basic setup in mp_main()
		while(c->cpu_status != CPU_STARTED)
  80042004f8:	90                   	nop
  80042004f9:	48 8b 45 f8          	mov    -0x8(%rbp),%rax
  80042004fd:	8b 40 04             	mov    0x4(%rax),%eax
  8004200500:	83 f8 01             	cmp    $0x1,%eax
  8004200503:	75 f4                	jne    80042004f9 <boot_aps+0x1be>

	// Write entry code to unused memory at MPENTRY_PADDR
	code = KADDR(MPENTRY_PADDR);
	memmove(code, mpentry_start, mpentry_end - mpentry_start);
	// Boot each AP one at a time
	for (c = cpus; c < cpus + ncpu; c++) {
  8004200505:	48 81 45 f8 88 00 00 	addq   $0x88,-0x8(%rbp)
  800420050c:	00 
  800420050d:	48 b8 48 72 37 04 80 	movabs $0x8004377248,%rax
  8004200514:	00 00 00 
  8004200517:	8b 00                	mov    (%rax),%eax
  8004200519:	48 98                	cltq   
  800420051b:	48 c1 e0 03          	shl    $0x3,%rax
  800420051f:	48 89 c2             	mov    %rax,%rdx
  8004200522:	48 c1 e2 04          	shl    $0x4,%rdx
  8004200526:	48 01 c2             	add    %rax,%rdx
  8004200529:	48 b8 20 70 37 04 80 	movabs $0x8004377020,%rax
  8004200530:	00 00 00 
  8004200533:	48 01 d0             	add    %rdx,%rax
  8004200536:	48 3b 45 f8          	cmp    -0x8(%rbp),%rax
  800420053a:	0f 87 bf fe ff ff    	ja     80042003ff <boot_aps+0xc4>
		lapic_startap(c->cpu_id, PADDR(code));
		// Wait for the CPU to finish some basic setup in mp_main()
		while(c->cpu_status != CPU_STARTED)
			;
	}
}
  8004200540:	c9                   	leaveq 
  8004200541:	c3                   	retq   

0000008004200542 <mp_main>:

// Setup code for APs
void
mp_main(void)
{
  8004200542:	55                   	push   %rbp
  8004200543:	48 89 e5             	mov    %rsp,%rbp
  8004200546:	48 83 ec 10          	sub    $0x10,%rsp
	// We are in high EIP now, safe to switch to kern_pgdir 
	lcr3(boot_cr3);
  800420054a:	48 b8 68 57 37 04 80 	movabs $0x8004375768,%rax
  8004200551:	00 00 00 
  8004200554:	48 8b 00             	mov    (%rax),%rax
  8004200557:	48 89 45 f8          	mov    %rax,-0x8(%rbp)
}

    static __inline void
lcr3(uint64_t val)
{
    __asm __volatile("movq %0,%%cr3" : : "r" (val));
  800420055b:	48 8b 45 f8          	mov    -0x8(%rbp),%rax
  800420055f:	0f 22 d8             	mov    %rax,%cr3
	cprintf("SMP: CPU %d starting\n", cpunum());
  8004200562:	48 b8 5a 5e 21 04 80 	movabs $0x8004215e5a,%rax
  8004200569:	00 00 00 
  800420056c:	ff d0                	callq  *%rax
  800420056e:	89 c6                	mov    %eax,%esi
  8004200570:	48 bf a4 71 21 04 80 	movabs $0x80042171a4,%rdi
  8004200577:	00 00 00 
  800420057a:	b8 00 00 00 00       	mov    $0x0,%eax
  800420057f:	48 ba 7f 97 20 04 80 	movabs $0x800420977f,%rdx
  8004200586:	00 00 00 
  8004200589:	ff d2                	callq  *%rdx

	lapic_init();
  800420058b:	48 b8 63 5c 21 04 80 	movabs $0x8004215c63,%rax
  8004200592:	00 00 00 
  8004200595:	ff d0                	callq  *%rax
	env_init_percpu();
  8004200597:	48 b8 6f 85 20 04 80 	movabs $0x800420856f,%rax
  800420059e:	00 00 00 
  80042005a1:	ff d0                	callq  *%rax
	trap_init_percpu();
  80042005a3:	48 b8 65 ae 20 04 80 	movabs $0x800420ae65,%rax
  80042005aa:	00 00 00 
  80042005ad:	ff d0                	callq  *%rax
	xchg(&thiscpu->cpu_status, CPU_STARTED); // tell boot_aps() we're up
  80042005af:	48 b8 5a 5e 21 04 80 	movabs $0x8004215e5a,%rax
  80042005b6:	00 00 00 
  80042005b9:	ff d0                	callq  *%rax
  80042005bb:	48 98                	cltq   
  80042005bd:	48 c1 e0 03          	shl    $0x3,%rax
  80042005c1:	48 89 c2             	mov    %rax,%rdx
  80042005c4:	48 c1 e2 04          	shl    $0x4,%rdx
  80042005c8:	48 01 d0             	add    %rdx,%rax
  80042005cb:	48 ba 20 70 37 04 80 	movabs $0x8004377020,%rdx
  80042005d2:	00 00 00 
  80042005d5:	48 01 d0             	add    %rdx,%rax
  80042005d8:	48 83 c0 04          	add    $0x4,%rax
  80042005dc:	be 01 00 00 00       	mov    $0x1,%esi
  80042005e1:	48 89 c7             	mov    %rax,%rdi
  80042005e4:	48 b8 ce 00 20 04 80 	movabs $0x80042000ce,%rax
  80042005eb:	00 00 00 
  80042005ee:	ff d0                	callq  *%rax
	// only one CPU can enter the scheduler at a time!
	//
	// Your code here:


	lock_kernel();
  80042005f0:	48 b8 f3 00 20 04 80 	movabs $0x80042000f3,%rax
  80042005f7:	00 00 00 
  80042005fa:	ff d0                	callq  *%rax
	sched_yield();
  80042005fc:	48 b8 3a c2 20 04 80 	movabs $0x800420c23a,%rax
  8004200603:	00 00 00 
  8004200606:	ff d0                	callq  *%rax

0000008004200608 <_panic>:
 * Panic is called on unresolvable fatal errors.
 * It prints "panic: mesg", and then enters the kernel monitor.
 */
void
_panic(const char *file, int line, const char *fmt,...)
{
  8004200608:	55                   	push   %rbp
  8004200609:	48 89 e5             	mov    %rsp,%rbp
  800420060c:	48 81 ec f0 00 00 00 	sub    $0xf0,%rsp
  8004200613:	48 89 bd 28 ff ff ff 	mov    %rdi,-0xd8(%rbp)
  800420061a:	89 b5 24 ff ff ff    	mov    %esi,-0xdc(%rbp)
  8004200620:	48 89 8d 68 ff ff ff 	mov    %rcx,-0x98(%rbp)
  8004200627:	4c 89 85 70 ff ff ff 	mov    %r8,-0x90(%rbp)
  800420062e:	4c 89 8d 78 ff ff ff 	mov    %r9,-0x88(%rbp)
  8004200635:	84 c0                	test   %al,%al
  8004200637:	74 20                	je     8004200659 <_panic+0x51>
  8004200639:	0f 29 45 80          	movaps %xmm0,-0x80(%rbp)
  800420063d:	0f 29 4d 90          	movaps %xmm1,-0x70(%rbp)
  8004200641:	0f 29 55 a0          	movaps %xmm2,-0x60(%rbp)
  8004200645:	0f 29 5d b0          	movaps %xmm3,-0x50(%rbp)
  8004200649:	0f 29 65 c0          	movaps %xmm4,-0x40(%rbp)
  800420064d:	0f 29 6d d0          	movaps %xmm5,-0x30(%rbp)
  8004200651:	0f 29 75 e0          	movaps %xmm6,-0x20(%rbp)
  8004200655:	0f 29 7d f0          	movaps %xmm7,-0x10(%rbp)
  8004200659:	48 89 95 18 ff ff ff 	mov    %rdx,-0xe8(%rbp)
	va_list ap;

	if (panicstr)
  8004200660:	48 b8 50 57 37 04 80 	movabs $0x8004375750,%rax
  8004200667:	00 00 00 
  800420066a:	48 8b 00             	mov    (%rax),%rax
  800420066d:	48 85 c0             	test   %rax,%rax
  8004200670:	74 05                	je     8004200677 <_panic+0x6f>
		goto dead;
  8004200672:	e9 b5 00 00 00       	jmpq   800420072c <_panic+0x124>
	panicstr = fmt;
  8004200677:	48 b8 50 57 37 04 80 	movabs $0x8004375750,%rax
  800420067e:	00 00 00 
  8004200681:	48 8b 95 18 ff ff ff 	mov    -0xe8(%rbp),%rdx
  8004200688:	48 89 10             	mov    %rdx,(%rax)

	// Be extra sure that the machine is in as reasonable state
	__asm __volatile("cli; cld");
  800420068b:	fa                   	cli    
  800420068c:	fc                   	cld    

	va_start(ap, fmt);
  800420068d:	c7 85 38 ff ff ff 18 	movl   $0x18,-0xc8(%rbp)
  8004200694:	00 00 00 
  8004200697:	c7 85 3c ff ff ff 30 	movl   $0x30,-0xc4(%rbp)
  800420069e:	00 00 00 
  80042006a1:	48 8d 45 10          	lea    0x10(%rbp),%rax
  80042006a5:	48 89 85 40 ff ff ff 	mov    %rax,-0xc0(%rbp)
  80042006ac:	48 8d 85 50 ff ff ff 	lea    -0xb0(%rbp),%rax
  80042006b3:	48 89 85 48 ff ff ff 	mov    %rax,-0xb8(%rbp)
	cprintf("kernel panic on CPU %d at %s:%d: ", cpunum(), file, line);
  80042006ba:	48 b8 5a 5e 21 04 80 	movabs $0x8004215e5a,%rax
  80042006c1:	00 00 00 
  80042006c4:	ff d0                	callq  *%rax
  80042006c6:	8b 8d 24 ff ff ff    	mov    -0xdc(%rbp),%ecx
  80042006cc:	48 8b 95 28 ff ff ff 	mov    -0xd8(%rbp),%rdx
  80042006d3:	89 c6                	mov    %eax,%esi
  80042006d5:	48 bf c0 71 21 04 80 	movabs $0x80042171c0,%rdi
  80042006dc:	00 00 00 
  80042006df:	b8 00 00 00 00       	mov    $0x0,%eax
  80042006e4:	49 b8 7f 97 20 04 80 	movabs $0x800420977f,%r8
  80042006eb:	00 00 00 
  80042006ee:	41 ff d0             	callq  *%r8
	vcprintf(fmt, ap);
  80042006f1:	48 8d 95 38 ff ff ff 	lea    -0xc8(%rbp),%rdx
  80042006f8:	48 8b 85 18 ff ff ff 	mov    -0xe8(%rbp),%rax
  80042006ff:	48 89 d6             	mov    %rdx,%rsi
  8004200702:	48 89 c7             	mov    %rax,%rdi
  8004200705:	48 b8 20 97 20 04 80 	movabs $0x8004209720,%rax
  800420070c:	00 00 00 
  800420070f:	ff d0                	callq  *%rax
	cprintf("\n");
  8004200711:	48 bf e2 71 21 04 80 	movabs $0x80042171e2,%rdi
  8004200718:	00 00 00 
  800420071b:	b8 00 00 00 00       	mov    $0x0,%eax
  8004200720:	48 ba 7f 97 20 04 80 	movabs $0x800420977f,%rdx
  8004200727:	00 00 00 
  800420072a:	ff d2                	callq  *%rdx
	va_end(ap);

dead:
	/* break into the kernel monitor */
	while (1)
		monitor(NULL);
  800420072c:	bf 00 00 00 00       	mov    $0x0,%edi
  8004200731:	48 b8 e7 24 20 04 80 	movabs $0x80042024e7,%rax
  8004200738:	00 00 00 
  800420073b:	ff d0                	callq  *%rax
  800420073d:	eb ed                	jmp    800420072c <_panic+0x124>

000000800420073f <_warn>:
}

/* like panic, but don't */
void
_warn(const char *file, int line, const char *fmt,...)
{
  800420073f:	55                   	push   %rbp
  8004200740:	48 89 e5             	mov    %rsp,%rbp
  8004200743:	48 81 ec f0 00 00 00 	sub    $0xf0,%rsp
  800420074a:	48 89 bd 28 ff ff ff 	mov    %rdi,-0xd8(%rbp)
  8004200751:	89 b5 24 ff ff ff    	mov    %esi,-0xdc(%rbp)
  8004200757:	48 89 8d 68 ff ff ff 	mov    %rcx,-0x98(%rbp)
  800420075e:	4c 89 85 70 ff ff ff 	mov    %r8,-0x90(%rbp)
  8004200765:	4c 89 8d 78 ff ff ff 	mov    %r9,-0x88(%rbp)
  800420076c:	84 c0                	test   %al,%al
  800420076e:	74 20                	je     8004200790 <_warn+0x51>
  8004200770:	0f 29 45 80          	movaps %xmm0,-0x80(%rbp)
  8004200774:	0f 29 4d 90          	movaps %xmm1,-0x70(%rbp)
  8004200778:	0f 29 55 a0          	movaps %xmm2,-0x60(%rbp)
  800420077c:	0f 29 5d b0          	movaps %xmm3,-0x50(%rbp)
  8004200780:	0f 29 65 c0          	movaps %xmm4,-0x40(%rbp)
  8004200784:	0f 29 6d d0          	movaps %xmm5,-0x30(%rbp)
  8004200788:	0f 29 75 e0          	movaps %xmm6,-0x20(%rbp)
  800420078c:	0f 29 7d f0          	movaps %xmm7,-0x10(%rbp)
  8004200790:	48 89 95 18 ff ff ff 	mov    %rdx,-0xe8(%rbp)
	va_list ap;

	va_start(ap, fmt);
  8004200797:	c7 85 38 ff ff ff 18 	movl   $0x18,-0xc8(%rbp)
  800420079e:	00 00 00 
  80042007a1:	c7 85 3c ff ff ff 30 	movl   $0x30,-0xc4(%rbp)
  80042007a8:	00 00 00 
  80042007ab:	48 8d 45 10          	lea    0x10(%rbp),%rax
  80042007af:	48 89 85 40 ff ff ff 	mov    %rax,-0xc0(%rbp)
  80042007b6:	48 8d 85 50 ff ff ff 	lea    -0xb0(%rbp),%rax
  80042007bd:	48 89 85 48 ff ff ff 	mov    %rax,-0xb8(%rbp)
	cprintf("kernel warning at %s:%d: ", file, line);
  80042007c4:	8b 95 24 ff ff ff    	mov    -0xdc(%rbp),%edx
  80042007ca:	48 8b 85 28 ff ff ff 	mov    -0xd8(%rbp),%rax
  80042007d1:	48 89 c6             	mov    %rax,%rsi
  80042007d4:	48 bf e4 71 21 04 80 	movabs $0x80042171e4,%rdi
  80042007db:	00 00 00 
  80042007de:	b8 00 00 00 00       	mov    $0x0,%eax
  80042007e3:	48 b9 7f 97 20 04 80 	movabs $0x800420977f,%rcx
  80042007ea:	00 00 00 
  80042007ed:	ff d1                	callq  *%rcx
	vcprintf(fmt, ap);
  80042007ef:	48 8d 95 38 ff ff ff 	lea    -0xc8(%rbp),%rdx
  80042007f6:	48 8b 85 18 ff ff ff 	mov    -0xe8(%rbp),%rax
  80042007fd:	48 89 d6             	mov    %rdx,%rsi
  8004200800:	48 89 c7             	mov    %rax,%rdi
  8004200803:	48 b8 20 97 20 04 80 	movabs $0x8004209720,%rax
  800420080a:	00 00 00 
  800420080d:	ff d0                	callq  *%rax
	cprintf("\n");
  800420080f:	48 bf e2 71 21 04 80 	movabs $0x80042171e2,%rdi
  8004200816:	00 00 00 
  8004200819:	b8 00 00 00 00       	mov    $0x0,%eax
  800420081e:	48 ba 7f 97 20 04 80 	movabs $0x800420977f,%rdx
  8004200825:	00 00 00 
  8004200828:	ff d2                	callq  *%rdx
	va_end(ap);
}
  800420082a:	c9                   	leaveq 
  800420082b:	c3                   	retq   

000000800420082c <delay>:
static void cons_putc(int c);

// Stupid I/O delay routine necessitated by historical PC design flaws
static void
delay(void)
{
  800420082c:	55                   	push   %rbp
  800420082d:	48 89 e5             	mov    %rsp,%rbp
  8004200830:	48 83 ec 20          	sub    $0x20,%rsp
  8004200834:	c7 45 fc 84 00 00 00 	movl   $0x84,-0x4(%rbp)

    static __inline uint8_t
inb(int port)
{
    uint8_t data;
    __asm __volatile("inb %w1,%0" : "=a" (data) : "d" (port));
  800420083b:	8b 45 fc             	mov    -0x4(%rbp),%eax
  800420083e:	89 c2                	mov    %eax,%edx
  8004200840:	ec                   	in     (%dx),%al
  8004200841:	88 45 fb             	mov    %al,-0x5(%rbp)
  8004200844:	c7 45 f4 84 00 00 00 	movl   $0x84,-0xc(%rbp)
  800420084b:	8b 45 f4             	mov    -0xc(%rbp),%eax
  800420084e:	89 c2                	mov    %eax,%edx
  8004200850:	ec                   	in     (%dx),%al
  8004200851:	88 45 f3             	mov    %al,-0xd(%rbp)
  8004200854:	c7 45 ec 84 00 00 00 	movl   $0x84,-0x14(%rbp)
  800420085b:	8b 45 ec             	mov    -0x14(%rbp),%eax
  800420085e:	89 c2                	mov    %eax,%edx
  8004200860:	ec                   	in     (%dx),%al
  8004200861:	88 45 eb             	mov    %al,-0x15(%rbp)
  8004200864:	c7 45 e4 84 00 00 00 	movl   $0x84,-0x1c(%rbp)
  800420086b:	8b 45 e4             	mov    -0x1c(%rbp),%eax
  800420086e:	89 c2                	mov    %eax,%edx
  8004200870:	ec                   	in     (%dx),%al
  8004200871:	88 45 e3             	mov    %al,-0x1d(%rbp)
	inb(0x84);
	inb(0x84);
	inb(0x84);
	inb(0x84);
}
  8004200874:	c9                   	leaveq 
  8004200875:	c3                   	retq   

0000008004200876 <serial_proc_data>:

static bool serial_exists;

static int
serial_proc_data(void)
{
  8004200876:	55                   	push   %rbp
  8004200877:	48 89 e5             	mov    %rsp,%rbp
  800420087a:	48 83 ec 10          	sub    $0x10,%rsp
  800420087e:	c7 45 fc fd 03 00 00 	movl   $0x3fd,-0x4(%rbp)
  8004200885:	8b 45 fc             	mov    -0x4(%rbp),%eax
  8004200888:	89 c2                	mov    %eax,%edx
  800420088a:	ec                   	in     (%dx),%al
  800420088b:	88 45 fb             	mov    %al,-0x5(%rbp)
    return data;
  800420088e:	0f b6 45 fb          	movzbl -0x5(%rbp),%eax
	if (!(inb(COM1+COM_LSR) & COM_LSR_DATA))
  8004200892:	0f b6 c0             	movzbl %al,%eax
  8004200895:	83 e0 01             	and    $0x1,%eax
  8004200898:	85 c0                	test   %eax,%eax
  800420089a:	75 07                	jne    80042008a3 <serial_proc_data+0x2d>
		return -1;
  800420089c:	b8 ff ff ff ff       	mov    $0xffffffff,%eax
  80042008a1:	eb 17                	jmp    80042008ba <serial_proc_data+0x44>
  80042008a3:	c7 45 f4 f8 03 00 00 	movl   $0x3f8,-0xc(%rbp)

    static __inline uint8_t
inb(int port)
{
    uint8_t data;
    __asm __volatile("inb %w1,%0" : "=a" (data) : "d" (port));
  80042008aa:	8b 45 f4             	mov    -0xc(%rbp),%eax
  80042008ad:	89 c2                	mov    %eax,%edx
  80042008af:	ec                   	in     (%dx),%al
  80042008b0:	88 45 f3             	mov    %al,-0xd(%rbp)
    return data;
  80042008b3:	0f b6 45 f3          	movzbl -0xd(%rbp),%eax
	return inb(COM1+COM_RX);
  80042008b7:	0f b6 c0             	movzbl %al,%eax
}
  80042008ba:	c9                   	leaveq 
  80042008bb:	c3                   	retq   

00000080042008bc <serial_intr>:

void
serial_intr(void)
{
  80042008bc:	55                   	push   %rbp
  80042008bd:	48 89 e5             	mov    %rsp,%rbp
	if (serial_exists)
  80042008c0:	48 b8 00 40 37 04 80 	movabs $0x8004374000,%rax
  80042008c7:	00 00 00 
  80042008ca:	0f b6 00             	movzbl (%rax),%eax
  80042008cd:	84 c0                	test   %al,%al
  80042008cf:	74 16                	je     80042008e7 <serial_intr+0x2b>
		cons_intr(serial_proc_data);
  80042008d1:	48 bf 76 08 20 04 80 	movabs $0x8004200876,%rdi
  80042008d8:	00 00 00 
  80042008db:	48 b8 8a 11 20 04 80 	movabs $0x800420118a,%rax
  80042008e2:	00 00 00 
  80042008e5:	ff d0                	callq  *%rax
}
  80042008e7:	5d                   	pop    %rbp
  80042008e8:	c3                   	retq   

00000080042008e9 <serial_putc>:

static void
serial_putc(int c)
{
  80042008e9:	55                   	push   %rbp
  80042008ea:	48 89 e5             	mov    %rsp,%rbp
  80042008ed:	48 83 ec 28          	sub    $0x28,%rsp
  80042008f1:	89 7d dc             	mov    %edi,-0x24(%rbp)
	int i;

	for (i = 0;
  80042008f4:	c7 45 fc 00 00 00 00 	movl   $0x0,-0x4(%rbp)
  80042008fb:	eb 10                	jmp    800420090d <serial_putc+0x24>
	     !(inb(COM1 + COM_LSR) & COM_LSR_TXRDY) && i < 12800;
	     i++)
		delay();
  80042008fd:	48 b8 2c 08 20 04 80 	movabs $0x800420082c,%rax
  8004200904:	00 00 00 
  8004200907:	ff d0                	callq  *%rax
{
	int i;

	for (i = 0;
	     !(inb(COM1 + COM_LSR) & COM_LSR_TXRDY) && i < 12800;
	     i++)
  8004200909:	83 45 fc 01          	addl   $0x1,-0x4(%rbp)
  800420090d:	c7 45 f8 fd 03 00 00 	movl   $0x3fd,-0x8(%rbp)

    static __inline uint8_t
inb(int port)
{
    uint8_t data;
    __asm __volatile("inb %w1,%0" : "=a" (data) : "d" (port));
  8004200914:	8b 45 f8             	mov    -0x8(%rbp),%eax
  8004200917:	89 c2                	mov    %eax,%edx
  8004200919:	ec                   	in     (%dx),%al
  800420091a:	88 45 f7             	mov    %al,-0x9(%rbp)
    return data;
  800420091d:	0f b6 45 f7          	movzbl -0x9(%rbp),%eax
serial_putc(int c)
{
	int i;

	for (i = 0;
	     !(inb(COM1 + COM_LSR) & COM_LSR_TXRDY) && i < 12800;
  8004200921:	0f b6 c0             	movzbl %al,%eax
  8004200924:	83 e0 20             	and    $0x20,%eax
static void
serial_putc(int c)
{
	int i;

	for (i = 0;
  8004200927:	85 c0                	test   %eax,%eax
  8004200929:	75 09                	jne    8004200934 <serial_putc+0x4b>
	     !(inb(COM1 + COM_LSR) & COM_LSR_TXRDY) && i < 12800;
  800420092b:	81 7d fc ff 31 00 00 	cmpl   $0x31ff,-0x4(%rbp)
  8004200932:	7e c9                	jle    80042008fd <serial_putc+0x14>
	     i++)
		delay();

	outb(COM1 + COM_TX, c);
  8004200934:	8b 45 dc             	mov    -0x24(%rbp),%eax
  8004200937:	0f b6 c0             	movzbl %al,%eax
  800420093a:	c7 45 f0 f8 03 00 00 	movl   $0x3f8,-0x10(%rbp)
  8004200941:	88 45 ef             	mov    %al,-0x11(%rbp)
}

    static __inline void
outb(int port, uint8_t data)
{
    __asm __volatile("outb %0,%w1" : : "a" (data), "d" (port));
  8004200944:	0f b6 45 ef          	movzbl -0x11(%rbp),%eax
  8004200948:	8b 55 f0             	mov    -0x10(%rbp),%edx
  800420094b:	ee                   	out    %al,(%dx)
}
  800420094c:	c9                   	leaveq 
  800420094d:	c3                   	retq   

000000800420094e <serial_init>:

static void
serial_init(void)
{
  800420094e:	55                   	push   %rbp
  800420094f:	48 89 e5             	mov    %rsp,%rbp
  8004200952:	48 83 ec 50          	sub    $0x50,%rsp
  8004200956:	c7 45 fc fa 03 00 00 	movl   $0x3fa,-0x4(%rbp)
  800420095d:	c6 45 fb 00          	movb   $0x0,-0x5(%rbp)
  8004200961:	0f b6 45 fb          	movzbl -0x5(%rbp),%eax
  8004200965:	8b 55 fc             	mov    -0x4(%rbp),%edx
  8004200968:	ee                   	out    %al,(%dx)
  8004200969:	c7 45 f4 fb 03 00 00 	movl   $0x3fb,-0xc(%rbp)
  8004200970:	c6 45 f3 80          	movb   $0x80,-0xd(%rbp)
  8004200974:	0f b6 45 f3          	movzbl -0xd(%rbp),%eax
  8004200978:	8b 55 f4             	mov    -0xc(%rbp),%edx
  800420097b:	ee                   	out    %al,(%dx)
  800420097c:	c7 45 ec f8 03 00 00 	movl   $0x3f8,-0x14(%rbp)
  8004200983:	c6 45 eb 0c          	movb   $0xc,-0x15(%rbp)
  8004200987:	0f b6 45 eb          	movzbl -0x15(%rbp),%eax
  800420098b:	8b 55 ec             	mov    -0x14(%rbp),%edx
  800420098e:	ee                   	out    %al,(%dx)
  800420098f:	c7 45 e4 f9 03 00 00 	movl   $0x3f9,-0x1c(%rbp)
  8004200996:	c6 45 e3 00          	movb   $0x0,-0x1d(%rbp)
  800420099a:	0f b6 45 e3          	movzbl -0x1d(%rbp),%eax
  800420099e:	8b 55 e4             	mov    -0x1c(%rbp),%edx
  80042009a1:	ee                   	out    %al,(%dx)
  80042009a2:	c7 45 dc fb 03 00 00 	movl   $0x3fb,-0x24(%rbp)
  80042009a9:	c6 45 db 03          	movb   $0x3,-0x25(%rbp)
  80042009ad:	0f b6 45 db          	movzbl -0x25(%rbp),%eax
  80042009b1:	8b 55 dc             	mov    -0x24(%rbp),%edx
  80042009b4:	ee                   	out    %al,(%dx)
  80042009b5:	c7 45 d4 fc 03 00 00 	movl   $0x3fc,-0x2c(%rbp)
  80042009bc:	c6 45 d3 00          	movb   $0x0,-0x2d(%rbp)
  80042009c0:	0f b6 45 d3          	movzbl -0x2d(%rbp),%eax
  80042009c4:	8b 55 d4             	mov    -0x2c(%rbp),%edx
  80042009c7:	ee                   	out    %al,(%dx)
  80042009c8:	c7 45 cc f9 03 00 00 	movl   $0x3f9,-0x34(%rbp)
  80042009cf:	c6 45 cb 01          	movb   $0x1,-0x35(%rbp)
  80042009d3:	0f b6 45 cb          	movzbl -0x35(%rbp),%eax
  80042009d7:	8b 55 cc             	mov    -0x34(%rbp),%edx
  80042009da:	ee                   	out    %al,(%dx)
  80042009db:	c7 45 c4 fd 03 00 00 	movl   $0x3fd,-0x3c(%rbp)

    static __inline uint8_t
inb(int port)
{
    uint8_t data;
    __asm __volatile("inb %w1,%0" : "=a" (data) : "d" (port));
  80042009e2:	8b 45 c4             	mov    -0x3c(%rbp),%eax
  80042009e5:	89 c2                	mov    %eax,%edx
  80042009e7:	ec                   	in     (%dx),%al
  80042009e8:	88 45 c3             	mov    %al,-0x3d(%rbp)
    return data;
  80042009eb:	0f b6 45 c3          	movzbl -0x3d(%rbp),%eax
	// Enable rcv interrupts
	outb(COM1+COM_IER, COM_IER_RDI);

	// Clear any preexisting overrun indications and interrupts
	// Serial port doesn't exist if COM_LSR returns 0xFF
	serial_exists = (inb(COM1+COM_LSR) != 0xFF);
  80042009ef:	3c ff                	cmp    $0xff,%al
  80042009f1:	0f 95 c2             	setne  %dl
  80042009f4:	48 b8 00 40 37 04 80 	movabs $0x8004374000,%rax
  80042009fb:	00 00 00 
  80042009fe:	88 10                	mov    %dl,(%rax)
  8004200a00:	c7 45 bc fa 03 00 00 	movl   $0x3fa,-0x44(%rbp)

    static __inline uint8_t
inb(int port)
{
    uint8_t data;
    __asm __volatile("inb %w1,%0" : "=a" (data) : "d" (port));
  8004200a07:	8b 45 bc             	mov    -0x44(%rbp),%eax
  8004200a0a:	89 c2                	mov    %eax,%edx
  8004200a0c:	ec                   	in     (%dx),%al
  8004200a0d:	88 45 bb             	mov    %al,-0x45(%rbp)
  8004200a10:	c7 45 b4 f8 03 00 00 	movl   $0x3f8,-0x4c(%rbp)
  8004200a17:	8b 45 b4             	mov    -0x4c(%rbp),%eax
  8004200a1a:	89 c2                	mov    %eax,%edx
  8004200a1c:	ec                   	in     (%dx),%al
  8004200a1d:	88 45 b3             	mov    %al,-0x4d(%rbp)
	(void) inb(COM1+COM_IIR);
	(void) inb(COM1+COM_RX);

	// Enable serial interrupts
	if (serial_exists)
  8004200a20:	48 b8 00 40 37 04 80 	movabs $0x8004374000,%rax
  8004200a27:	00 00 00 
  8004200a2a:	0f b6 00             	movzbl (%rax),%eax
  8004200a2d:	84 c0                	test   %al,%al
  8004200a2f:	74 23                	je     8004200a54 <serial_init+0x106>
		irq_setmask_8259A(irq_mask_8259A & ~(1<<4));
  8004200a31:	48 b8 d2 b6 22 04 80 	movabs $0x800422b6d2,%rax
  8004200a38:	00 00 00 
  8004200a3b:	0f b7 00             	movzwl (%rax),%eax
  8004200a3e:	0f b7 c0             	movzwl %ax,%eax
  8004200a41:	25 ef ff 00 00       	and    $0xffef,%eax
  8004200a46:	89 c7                	mov    %eax,%edi
  8004200a48:	48 b8 d1 95 20 04 80 	movabs $0x80042095d1,%rax
  8004200a4f:	00 00 00 
  8004200a52:	ff d0                	callq  *%rax
}
  8004200a54:	c9                   	leaveq 
  8004200a55:	c3                   	retq   

0000008004200a56 <lpt_putc>:
// For information on PC parallel port programming, see the class References
// page.

static void
lpt_putc(int c)
{
  8004200a56:	55                   	push   %rbp
  8004200a57:	48 89 e5             	mov    %rsp,%rbp
  8004200a5a:	48 83 ec 38          	sub    $0x38,%rsp
  8004200a5e:	89 7d cc             	mov    %edi,-0x34(%rbp)
	int i;

	for (i = 0; !(inb(0x378+1) & 0x80) && i < 12800; i++)
  8004200a61:	c7 45 fc 00 00 00 00 	movl   $0x0,-0x4(%rbp)
  8004200a68:	eb 10                	jmp    8004200a7a <lpt_putc+0x24>
		delay();
  8004200a6a:	48 b8 2c 08 20 04 80 	movabs $0x800420082c,%rax
  8004200a71:	00 00 00 
  8004200a74:	ff d0                	callq  *%rax
static void
lpt_putc(int c)
{
	int i;

	for (i = 0; !(inb(0x378+1) & 0x80) && i < 12800; i++)
  8004200a76:	83 45 fc 01          	addl   $0x1,-0x4(%rbp)
  8004200a7a:	c7 45 f8 79 03 00 00 	movl   $0x379,-0x8(%rbp)
  8004200a81:	8b 45 f8             	mov    -0x8(%rbp),%eax
  8004200a84:	89 c2                	mov    %eax,%edx
  8004200a86:	ec                   	in     (%dx),%al
  8004200a87:	88 45 f7             	mov    %al,-0x9(%rbp)
    return data;
  8004200a8a:	0f b6 45 f7          	movzbl -0x9(%rbp),%eax
  8004200a8e:	84 c0                	test   %al,%al
  8004200a90:	78 09                	js     8004200a9b <lpt_putc+0x45>
  8004200a92:	81 7d fc ff 31 00 00 	cmpl   $0x31ff,-0x4(%rbp)
  8004200a99:	7e cf                	jle    8004200a6a <lpt_putc+0x14>
		delay();
	outb(0x378+0, c);
  8004200a9b:	8b 45 cc             	mov    -0x34(%rbp),%eax
  8004200a9e:	0f b6 c0             	movzbl %al,%eax
  8004200aa1:	c7 45 f0 78 03 00 00 	movl   $0x378,-0x10(%rbp)
  8004200aa8:	88 45 ef             	mov    %al,-0x11(%rbp)
}

    static __inline void
outb(int port, uint8_t data)
{
    __asm __volatile("outb %0,%w1" : : "a" (data), "d" (port));
  8004200aab:	0f b6 45 ef          	movzbl -0x11(%rbp),%eax
  8004200aaf:	8b 55 f0             	mov    -0x10(%rbp),%edx
  8004200ab2:	ee                   	out    %al,(%dx)
  8004200ab3:	c7 45 e8 7a 03 00 00 	movl   $0x37a,-0x18(%rbp)
  8004200aba:	c6 45 e7 0d          	movb   $0xd,-0x19(%rbp)
  8004200abe:	0f b6 45 e7          	movzbl -0x19(%rbp),%eax
  8004200ac2:	8b 55 e8             	mov    -0x18(%rbp),%edx
  8004200ac5:	ee                   	out    %al,(%dx)
  8004200ac6:	c7 45 e0 7a 03 00 00 	movl   $0x37a,-0x20(%rbp)
  8004200acd:	c6 45 df 08          	movb   $0x8,-0x21(%rbp)
  8004200ad1:	0f b6 45 df          	movzbl -0x21(%rbp),%eax
  8004200ad5:	8b 55 e0             	mov    -0x20(%rbp),%edx
  8004200ad8:	ee                   	out    %al,(%dx)
	outb(0x378+2, 0x08|0x04|0x01);
	outb(0x378+2, 0x08);
}
  8004200ad9:	c9                   	leaveq 
  8004200ada:	c3                   	retq   

0000008004200adb <cga_init>:
static uint16_t *crt_buf;
static uint16_t crt_pos;

static void
cga_init(void)
{
  8004200adb:	55                   	push   %rbp
  8004200adc:	48 89 e5             	mov    %rsp,%rbp
  8004200adf:	48 83 ec 30          	sub    $0x30,%rsp
	volatile uint16_t *cp;
	uint16_t was;
	unsigned pos;

	cp = (uint16_t*) (KERNBASE + CGA_BUF);
  8004200ae3:	48 b8 00 80 0b 04 80 	movabs $0x80040b8000,%rax
  8004200aea:	00 00 00 
  8004200aed:	48 89 45 f8          	mov    %rax,-0x8(%rbp)
	was = *cp;
  8004200af1:	48 8b 45 f8          	mov    -0x8(%rbp),%rax
  8004200af5:	0f b7 00             	movzwl (%rax),%eax
  8004200af8:	66 89 45 f6          	mov    %ax,-0xa(%rbp)
	*cp = (uint16_t) 0xA55A;
  8004200afc:	48 8b 45 f8          	mov    -0x8(%rbp),%rax
  8004200b00:	66 c7 00 5a a5       	movw   $0xa55a,(%rax)
	if (*cp != 0xA55A) {
  8004200b05:	48 8b 45 f8          	mov    -0x8(%rbp),%rax
  8004200b09:	0f b7 00             	movzwl (%rax),%eax
  8004200b0c:	66 3d 5a a5          	cmp    $0xa55a,%ax
  8004200b10:	74 20                	je     8004200b32 <cga_init+0x57>
		cp = (uint16_t*) (KERNBASE + MONO_BUF);
  8004200b12:	48 b8 00 00 0b 04 80 	movabs $0x80040b0000,%rax
  8004200b19:	00 00 00 
  8004200b1c:	48 89 45 f8          	mov    %rax,-0x8(%rbp)
		addr_6845 = MONO_BASE;
  8004200b20:	48 b8 04 40 37 04 80 	movabs $0x8004374004,%rax
  8004200b27:	00 00 00 
  8004200b2a:	c7 00 b4 03 00 00    	movl   $0x3b4,(%rax)
  8004200b30:	eb 1b                	jmp    8004200b4d <cga_init+0x72>
	} else {
		*cp = was;
  8004200b32:	48 8b 45 f8          	mov    -0x8(%rbp),%rax
  8004200b36:	0f b7 55 f6          	movzwl -0xa(%rbp),%edx
  8004200b3a:	66 89 10             	mov    %dx,(%rax)
		addr_6845 = CGA_BASE;
  8004200b3d:	48 b8 04 40 37 04 80 	movabs $0x8004374004,%rax
  8004200b44:	00 00 00 
  8004200b47:	c7 00 d4 03 00 00    	movl   $0x3d4,(%rax)
	}

	/* Extract cursor location */
	outb(addr_6845, 14);
  8004200b4d:	48 b8 04 40 37 04 80 	movabs $0x8004374004,%rax
  8004200b54:	00 00 00 
  8004200b57:	8b 00                	mov    (%rax),%eax
  8004200b59:	89 45 ec             	mov    %eax,-0x14(%rbp)
  8004200b5c:	c6 45 eb 0e          	movb   $0xe,-0x15(%rbp)
  8004200b60:	0f b6 45 eb          	movzbl -0x15(%rbp),%eax
  8004200b64:	8b 55 ec             	mov    -0x14(%rbp),%edx
  8004200b67:	ee                   	out    %al,(%dx)
	pos = inb(addr_6845 + 1) << 8;
  8004200b68:	48 b8 04 40 37 04 80 	movabs $0x8004374004,%rax
  8004200b6f:	00 00 00 
  8004200b72:	8b 00                	mov    (%rax),%eax
  8004200b74:	83 c0 01             	add    $0x1,%eax
  8004200b77:	89 45 e4             	mov    %eax,-0x1c(%rbp)

    static __inline uint8_t
inb(int port)
{
    uint8_t data;
    __asm __volatile("inb %w1,%0" : "=a" (data) : "d" (port));
  8004200b7a:	8b 45 e4             	mov    -0x1c(%rbp),%eax
  8004200b7d:	89 c2                	mov    %eax,%edx
  8004200b7f:	ec                   	in     (%dx),%al
  8004200b80:	88 45 e3             	mov    %al,-0x1d(%rbp)
    return data;
  8004200b83:	0f b6 45 e3          	movzbl -0x1d(%rbp),%eax
  8004200b87:	0f b6 c0             	movzbl %al,%eax
  8004200b8a:	c1 e0 08             	shl    $0x8,%eax
  8004200b8d:	89 45 f0             	mov    %eax,-0x10(%rbp)
	outb(addr_6845, 15);
  8004200b90:	48 b8 04 40 37 04 80 	movabs $0x8004374004,%rax
  8004200b97:	00 00 00 
  8004200b9a:	8b 00                	mov    (%rax),%eax
  8004200b9c:	89 45 dc             	mov    %eax,-0x24(%rbp)
  8004200b9f:	c6 45 db 0f          	movb   $0xf,-0x25(%rbp)
}

    static __inline void
outb(int port, uint8_t data)
{
    __asm __volatile("outb %0,%w1" : : "a" (data), "d" (port));
  8004200ba3:	0f b6 45 db          	movzbl -0x25(%rbp),%eax
  8004200ba7:	8b 55 dc             	mov    -0x24(%rbp),%edx
  8004200baa:	ee                   	out    %al,(%dx)
	pos |= inb(addr_6845 + 1);
  8004200bab:	48 b8 04 40 37 04 80 	movabs $0x8004374004,%rax
  8004200bb2:	00 00 00 
  8004200bb5:	8b 00                	mov    (%rax),%eax
  8004200bb7:	83 c0 01             	add    $0x1,%eax
  8004200bba:	89 45 d4             	mov    %eax,-0x2c(%rbp)

    static __inline uint8_t
inb(int port)
{
    uint8_t data;
    __asm __volatile("inb %w1,%0" : "=a" (data) : "d" (port));
  8004200bbd:	8b 45 d4             	mov    -0x2c(%rbp),%eax
  8004200bc0:	89 c2                	mov    %eax,%edx
  8004200bc2:	ec                   	in     (%dx),%al
  8004200bc3:	88 45 d3             	mov    %al,-0x2d(%rbp)
    return data;
  8004200bc6:	0f b6 45 d3          	movzbl -0x2d(%rbp),%eax
  8004200bca:	0f b6 c0             	movzbl %al,%eax
  8004200bcd:	09 45 f0             	or     %eax,-0x10(%rbp)

	crt_buf = (uint16_t*) cp;
  8004200bd0:	48 b8 08 40 37 04 80 	movabs $0x8004374008,%rax
  8004200bd7:	00 00 00 
  8004200bda:	48 8b 55 f8          	mov    -0x8(%rbp),%rdx
  8004200bde:	48 89 10             	mov    %rdx,(%rax)
	crt_pos = pos;
  8004200be1:	8b 45 f0             	mov    -0x10(%rbp),%eax
  8004200be4:	89 c2                	mov    %eax,%edx
  8004200be6:	48 b8 10 40 37 04 80 	movabs $0x8004374010,%rax
  8004200bed:	00 00 00 
  8004200bf0:	66 89 10             	mov    %dx,(%rax)
}
  8004200bf3:	c9                   	leaveq 
  8004200bf4:	c3                   	retq   

0000008004200bf5 <cga_putc>:



static void
cga_putc(int c)
{
  8004200bf5:	55                   	push   %rbp
  8004200bf6:	48 89 e5             	mov    %rsp,%rbp
  8004200bf9:	48 83 ec 40          	sub    $0x40,%rsp
  8004200bfd:	89 7d cc             	mov    %edi,-0x34(%rbp)
	c|= current_color<<8;
  8004200c00:	48 b8 60 57 37 04 80 	movabs $0x8004375760,%rax
  8004200c07:	00 00 00 
  8004200c0a:	8b 00                	mov    (%rax),%eax
  8004200c0c:	c1 e0 08             	shl    $0x8,%eax
  8004200c0f:	09 45 cc             	or     %eax,-0x34(%rbp)
	// if no attribute given, then use black on white
	// if (!(c & ~0xFF))
	// 	c |= 0x0700;

	switch (c & 0xff) {
  8004200c12:	8b 45 cc             	mov    -0x34(%rbp),%eax
  8004200c15:	0f b6 c0             	movzbl %al,%eax
  8004200c18:	83 f8 09             	cmp    $0x9,%eax
  8004200c1b:	0f 84 f6 00 00 00    	je     8004200d17 <cga_putc+0x122>
  8004200c21:	83 f8 09             	cmp    $0x9,%eax
  8004200c24:	7f 0a                	jg     8004200c30 <cga_putc+0x3b>
  8004200c26:	83 f8 08             	cmp    $0x8,%eax
  8004200c29:	74 18                	je     8004200c43 <cga_putc+0x4e>
  8004200c2b:	e9 3e 01 00 00       	jmpq   8004200d6e <cga_putc+0x179>
  8004200c30:	83 f8 0a             	cmp    $0xa,%eax
  8004200c33:	74 75                	je     8004200caa <cga_putc+0xb5>
  8004200c35:	83 f8 0d             	cmp    $0xd,%eax
  8004200c38:	0f 84 89 00 00 00    	je     8004200cc7 <cga_putc+0xd2>
  8004200c3e:	e9 2b 01 00 00       	jmpq   8004200d6e <cga_putc+0x179>
	case '\b':
		if (crt_pos > 0) {
  8004200c43:	48 b8 10 40 37 04 80 	movabs $0x8004374010,%rax
  8004200c4a:	00 00 00 
  8004200c4d:	0f b7 00             	movzwl (%rax),%eax
  8004200c50:	66 85 c0             	test   %ax,%ax
  8004200c53:	74 50                	je     8004200ca5 <cga_putc+0xb0>
			crt_pos--;
  8004200c55:	48 b8 10 40 37 04 80 	movabs $0x8004374010,%rax
  8004200c5c:	00 00 00 
  8004200c5f:	0f b7 00             	movzwl (%rax),%eax
  8004200c62:	8d 50 ff             	lea    -0x1(%rax),%edx
  8004200c65:	48 b8 10 40 37 04 80 	movabs $0x8004374010,%rax
  8004200c6c:	00 00 00 
  8004200c6f:	66 89 10             	mov    %dx,(%rax)
			crt_buf[crt_pos] = (c & ~0xff) | ' ';
  8004200c72:	48 b8 08 40 37 04 80 	movabs $0x8004374008,%rax
  8004200c79:	00 00 00 
  8004200c7c:	48 8b 10             	mov    (%rax),%rdx
  8004200c7f:	48 b8 10 40 37 04 80 	movabs $0x8004374010,%rax
  8004200c86:	00 00 00 
  8004200c89:	0f b7 00             	movzwl (%rax),%eax
  8004200c8c:	0f b7 c0             	movzwl %ax,%eax
  8004200c8f:	48 01 c0             	add    %rax,%rax
  8004200c92:	48 01 c2             	add    %rax,%rdx
  8004200c95:	8b 45 cc             	mov    -0x34(%rbp),%eax
  8004200c98:	b0 00                	mov    $0x0,%al
  8004200c9a:	83 c8 20             	or     $0x20,%eax
  8004200c9d:	66 89 02             	mov    %ax,(%rdx)
		}
		break;
  8004200ca0:	e9 04 01 00 00       	jmpq   8004200da9 <cga_putc+0x1b4>
  8004200ca5:	e9 ff 00 00 00       	jmpq   8004200da9 <cga_putc+0x1b4>
	case '\n':
		crt_pos += CRT_COLS;
  8004200caa:	48 b8 10 40 37 04 80 	movabs $0x8004374010,%rax
  8004200cb1:	00 00 00 
  8004200cb4:	0f b7 00             	movzwl (%rax),%eax
  8004200cb7:	8d 50 50             	lea    0x50(%rax),%edx
  8004200cba:	48 b8 10 40 37 04 80 	movabs $0x8004374010,%rax
  8004200cc1:	00 00 00 
  8004200cc4:	66 89 10             	mov    %dx,(%rax)
		/* fallthru */
	case '\r':
		crt_pos -= (crt_pos % CRT_COLS);
  8004200cc7:	48 b8 10 40 37 04 80 	movabs $0x8004374010,%rax
  8004200cce:	00 00 00 
  8004200cd1:	0f b7 30             	movzwl (%rax),%esi
  8004200cd4:	48 b8 10 40 37 04 80 	movabs $0x8004374010,%rax
  8004200cdb:	00 00 00 
  8004200cde:	0f b7 08             	movzwl (%rax),%ecx
  8004200ce1:	0f b7 c1             	movzwl %cx,%eax
  8004200ce4:	69 c0 cd cc 00 00    	imul   $0xcccd,%eax,%eax
  8004200cea:	c1 e8 10             	shr    $0x10,%eax
  8004200ced:	89 c2                	mov    %eax,%edx
  8004200cef:	66 c1 ea 06          	shr    $0x6,%dx
  8004200cf3:	89 d0                	mov    %edx,%eax
  8004200cf5:	c1 e0 02             	shl    $0x2,%eax
  8004200cf8:	01 d0                	add    %edx,%eax
  8004200cfa:	c1 e0 04             	shl    $0x4,%eax
  8004200cfd:	29 c1                	sub    %eax,%ecx
  8004200cff:	89 ca                	mov    %ecx,%edx
  8004200d01:	29 d6                	sub    %edx,%esi
  8004200d03:	89 f2                	mov    %esi,%edx
  8004200d05:	48 b8 10 40 37 04 80 	movabs $0x8004374010,%rax
  8004200d0c:	00 00 00 
  8004200d0f:	66 89 10             	mov    %dx,(%rax)
		break;
  8004200d12:	e9 92 00 00 00       	jmpq   8004200da9 <cga_putc+0x1b4>
	case '\t':
		cons_putc(' ');
  8004200d17:	bf 20 00 00 00       	mov    $0x20,%edi
  8004200d1c:	48 b8 c7 12 20 04 80 	movabs $0x80042012c7,%rax
  8004200d23:	00 00 00 
  8004200d26:	ff d0                	callq  *%rax
		cons_putc(' ');
  8004200d28:	bf 20 00 00 00       	mov    $0x20,%edi
  8004200d2d:	48 b8 c7 12 20 04 80 	movabs $0x80042012c7,%rax
  8004200d34:	00 00 00 
  8004200d37:	ff d0                	callq  *%rax
		cons_putc(' ');
  8004200d39:	bf 20 00 00 00       	mov    $0x20,%edi
  8004200d3e:	48 b8 c7 12 20 04 80 	movabs $0x80042012c7,%rax
  8004200d45:	00 00 00 
  8004200d48:	ff d0                	callq  *%rax
		cons_putc(' ');
  8004200d4a:	bf 20 00 00 00       	mov    $0x20,%edi
  8004200d4f:	48 b8 c7 12 20 04 80 	movabs $0x80042012c7,%rax
  8004200d56:	00 00 00 
  8004200d59:	ff d0                	callq  *%rax
		cons_putc(' ');
  8004200d5b:	bf 20 00 00 00       	mov    $0x20,%edi
  8004200d60:	48 b8 c7 12 20 04 80 	movabs $0x80042012c7,%rax
  8004200d67:	00 00 00 
  8004200d6a:	ff d0                	callq  *%rax
		break;
  8004200d6c:	eb 3b                	jmp    8004200da9 <cga_putc+0x1b4>
	default:
		crt_buf[crt_pos++] = c;		/* write the character */
  8004200d6e:	48 b8 08 40 37 04 80 	movabs $0x8004374008,%rax
  8004200d75:	00 00 00 
  8004200d78:	48 8b 30             	mov    (%rax),%rsi
  8004200d7b:	48 b8 10 40 37 04 80 	movabs $0x8004374010,%rax
  8004200d82:	00 00 00 
  8004200d85:	0f b7 00             	movzwl (%rax),%eax
  8004200d88:	8d 48 01             	lea    0x1(%rax),%ecx
  8004200d8b:	48 ba 10 40 37 04 80 	movabs $0x8004374010,%rdx
  8004200d92:	00 00 00 
  8004200d95:	66 89 0a             	mov    %cx,(%rdx)
  8004200d98:	0f b7 c0             	movzwl %ax,%eax
  8004200d9b:	48 01 c0             	add    %rax,%rax
  8004200d9e:	48 8d 14 06          	lea    (%rsi,%rax,1),%rdx
  8004200da2:	8b 45 cc             	mov    -0x34(%rbp),%eax
  8004200da5:	66 89 02             	mov    %ax,(%rdx)
		break;
  8004200da8:	90                   	nop
	}

	// What is the purpose of this?
	if (crt_pos >= CRT_SIZE) {
  8004200da9:	48 b8 10 40 37 04 80 	movabs $0x8004374010,%rax
  8004200db0:	00 00 00 
  8004200db3:	0f b7 00             	movzwl (%rax),%eax
  8004200db6:	66 3d cf 07          	cmp    $0x7cf,%ax
  8004200dba:	0f 86 89 00 00 00    	jbe    8004200e49 <cga_putc+0x254>
		int i;

		memmove(crt_buf, crt_buf + CRT_COLS, (CRT_SIZE - CRT_COLS) * sizeof(uint16_t));
  8004200dc0:	48 b8 08 40 37 04 80 	movabs $0x8004374008,%rax
  8004200dc7:	00 00 00 
  8004200dca:	48 8b 00             	mov    (%rax),%rax
  8004200dcd:	48 8d 88 a0 00 00 00 	lea    0xa0(%rax),%rcx
  8004200dd4:	48 b8 08 40 37 04 80 	movabs $0x8004374008,%rax
  8004200ddb:	00 00 00 
  8004200dde:	48 8b 00             	mov    (%rax),%rax
  8004200de1:	ba 00 0f 00 00       	mov    $0xf00,%edx
  8004200de6:	48 89 ce             	mov    %rcx,%rsi
  8004200de9:	48 89 c7             	mov    %rax,%rdi
  8004200dec:	48 b8 db ee 20 04 80 	movabs $0x800420eedb,%rax
  8004200df3:	00 00 00 
  8004200df6:	ff d0                	callq  *%rax
		for (i = CRT_SIZE - CRT_COLS; i < CRT_SIZE; i++)
  8004200df8:	c7 45 fc 80 07 00 00 	movl   $0x780,-0x4(%rbp)
  8004200dff:	eb 22                	jmp    8004200e23 <cga_putc+0x22e>
			crt_buf[i] = 0x0700 | ' ';
  8004200e01:	48 b8 08 40 37 04 80 	movabs $0x8004374008,%rax
  8004200e08:	00 00 00 
  8004200e0b:	48 8b 00             	mov    (%rax),%rax
  8004200e0e:	8b 55 fc             	mov    -0x4(%rbp),%edx
  8004200e11:	48 63 d2             	movslq %edx,%rdx
  8004200e14:	48 01 d2             	add    %rdx,%rdx
  8004200e17:	48 01 d0             	add    %rdx,%rax
  8004200e1a:	66 c7 00 20 07       	movw   $0x720,(%rax)
	// What is the purpose of this?
	if (crt_pos >= CRT_SIZE) {
		int i;

		memmove(crt_buf, crt_buf + CRT_COLS, (CRT_SIZE - CRT_COLS) * sizeof(uint16_t));
		for (i = CRT_SIZE - CRT_COLS; i < CRT_SIZE; i++)
  8004200e1f:	83 45 fc 01          	addl   $0x1,-0x4(%rbp)
  8004200e23:	81 7d fc cf 07 00 00 	cmpl   $0x7cf,-0x4(%rbp)
  8004200e2a:	7e d5                	jle    8004200e01 <cga_putc+0x20c>
			crt_buf[i] = 0x0700 | ' ';
		crt_pos -= CRT_COLS;
  8004200e2c:	48 b8 10 40 37 04 80 	movabs $0x8004374010,%rax
  8004200e33:	00 00 00 
  8004200e36:	0f b7 00             	movzwl (%rax),%eax
  8004200e39:	8d 50 b0             	lea    -0x50(%rax),%edx
  8004200e3c:	48 b8 10 40 37 04 80 	movabs $0x8004374010,%rax
  8004200e43:	00 00 00 
  8004200e46:	66 89 10             	mov    %dx,(%rax)
	}

	/* move that little blinky thing */
	outb(addr_6845, 14);
  8004200e49:	48 b8 04 40 37 04 80 	movabs $0x8004374004,%rax
  8004200e50:	00 00 00 
  8004200e53:	8b 00                	mov    (%rax),%eax
  8004200e55:	89 45 f8             	mov    %eax,-0x8(%rbp)
  8004200e58:	c6 45 f7 0e          	movb   $0xe,-0x9(%rbp)
}

    static __inline void
outb(int port, uint8_t data)
{
    __asm __volatile("outb %0,%w1" : : "a" (data), "d" (port));
  8004200e5c:	0f b6 45 f7          	movzbl -0x9(%rbp),%eax
  8004200e60:	8b 55 f8             	mov    -0x8(%rbp),%edx
  8004200e63:	ee                   	out    %al,(%dx)
	outb(addr_6845 + 1, crt_pos >> 8);
  8004200e64:	48 b8 10 40 37 04 80 	movabs $0x8004374010,%rax
  8004200e6b:	00 00 00 
  8004200e6e:	0f b7 00             	movzwl (%rax),%eax
  8004200e71:	66 c1 e8 08          	shr    $0x8,%ax
  8004200e75:	0f b6 c0             	movzbl %al,%eax
  8004200e78:	48 ba 04 40 37 04 80 	movabs $0x8004374004,%rdx
  8004200e7f:	00 00 00 
  8004200e82:	8b 12                	mov    (%rdx),%edx
  8004200e84:	83 c2 01             	add    $0x1,%edx
  8004200e87:	89 55 f0             	mov    %edx,-0x10(%rbp)
  8004200e8a:	88 45 ef             	mov    %al,-0x11(%rbp)
  8004200e8d:	0f b6 45 ef          	movzbl -0x11(%rbp),%eax
  8004200e91:	8b 55 f0             	mov    -0x10(%rbp),%edx
  8004200e94:	ee                   	out    %al,(%dx)
	outb(addr_6845, 15);
  8004200e95:	48 b8 04 40 37 04 80 	movabs $0x8004374004,%rax
  8004200e9c:	00 00 00 
  8004200e9f:	8b 00                	mov    (%rax),%eax
  8004200ea1:	89 45 e8             	mov    %eax,-0x18(%rbp)
  8004200ea4:	c6 45 e7 0f          	movb   $0xf,-0x19(%rbp)
  8004200ea8:	0f b6 45 e7          	movzbl -0x19(%rbp),%eax
  8004200eac:	8b 55 e8             	mov    -0x18(%rbp),%edx
  8004200eaf:	ee                   	out    %al,(%dx)
	outb(addr_6845 + 1, crt_pos);
  8004200eb0:	48 b8 10 40 37 04 80 	movabs $0x8004374010,%rax
  8004200eb7:	00 00 00 
  8004200eba:	0f b7 00             	movzwl (%rax),%eax
  8004200ebd:	0f b6 c0             	movzbl %al,%eax
  8004200ec0:	48 ba 04 40 37 04 80 	movabs $0x8004374004,%rdx
  8004200ec7:	00 00 00 
  8004200eca:	8b 12                	mov    (%rdx),%edx
  8004200ecc:	83 c2 01             	add    $0x1,%edx
  8004200ecf:	89 55 e0             	mov    %edx,-0x20(%rbp)
  8004200ed2:	88 45 df             	mov    %al,-0x21(%rbp)
  8004200ed5:	0f b6 45 df          	movzbl -0x21(%rbp),%eax
  8004200ed9:	8b 55 e0             	mov    -0x20(%rbp),%edx
  8004200edc:	ee                   	out    %al,(%dx)
}
  8004200edd:	c9                   	leaveq 
  8004200ede:	c3                   	retq   

0000008004200edf <kbd_proc_data>:
 * Get data from the keyboard.  If we finish a character, return it.  Else 0.
 * Return -1 if no data.
 */
static int
kbd_proc_data(void)
{
  8004200edf:	55                   	push   %rbp
  8004200ee0:	48 89 e5             	mov    %rsp,%rbp
  8004200ee3:	48 83 ec 30          	sub    $0x30,%rsp
  8004200ee7:	c7 45 f0 64 00 00 00 	movl   $0x64,-0x10(%rbp)

    static __inline uint8_t
inb(int port)
{
    uint8_t data;
    __asm __volatile("inb %w1,%0" : "=a" (data) : "d" (port));
  8004200eee:	8b 45 f0             	mov    -0x10(%rbp),%eax
  8004200ef1:	89 c2                	mov    %eax,%edx
  8004200ef3:	ec                   	in     (%dx),%al
  8004200ef4:	88 45 ef             	mov    %al,-0x11(%rbp)
    return data;
  8004200ef7:	0f b6 45 ef          	movzbl -0x11(%rbp),%eax
	int c;
	uint8_t data;
	static uint32_t shift;
	int r;
	if ((inb(KBSTATP) & KBS_DIB) == 0)
  8004200efb:	0f b6 c0             	movzbl %al,%eax
  8004200efe:	83 e0 01             	and    $0x1,%eax
  8004200f01:	85 c0                	test   %eax,%eax
  8004200f03:	75 0a                	jne    8004200f0f <kbd_proc_data+0x30>
		return -1;
  8004200f05:	b8 ff ff ff ff       	mov    $0xffffffff,%eax
  8004200f0a:	e9 28 02 00 00       	jmpq   8004201137 <kbd_proc_data+0x258>
  8004200f0f:	c7 45 e8 60 00 00 00 	movl   $0x60,-0x18(%rbp)

    static __inline uint8_t
inb(int port)
{
    uint8_t data;
    __asm __volatile("inb %w1,%0" : "=a" (data) : "d" (port));
  8004200f16:	8b 45 e8             	mov    -0x18(%rbp),%eax
  8004200f19:	89 c2                	mov    %eax,%edx
  8004200f1b:	ec                   	in     (%dx),%al
  8004200f1c:	88 45 e7             	mov    %al,-0x19(%rbp)
    return data;
  8004200f1f:	0f b6 45 e7          	movzbl -0x19(%rbp),%eax

	data = inb(KBDATAP);
  8004200f23:	88 45 fb             	mov    %al,-0x5(%rbp)

	if (data == 0xE0) {
  8004200f26:	80 7d fb e0          	cmpb   $0xe0,-0x5(%rbp)
  8004200f2a:	75 27                	jne    8004200f53 <kbd_proc_data+0x74>
		// E0 escape character
		shift |= E0ESC;
  8004200f2c:	48 b8 28 42 37 04 80 	movabs $0x8004374228,%rax
  8004200f33:	00 00 00 
  8004200f36:	8b 00                	mov    (%rax),%eax
  8004200f38:	83 c8 40             	or     $0x40,%eax
  8004200f3b:	89 c2                	mov    %eax,%edx
  8004200f3d:	48 b8 28 42 37 04 80 	movabs $0x8004374228,%rax
  8004200f44:	00 00 00 
  8004200f47:	89 10                	mov    %edx,(%rax)
		return 0;
  8004200f49:	b8 00 00 00 00       	mov    $0x0,%eax
  8004200f4e:	e9 e4 01 00 00       	jmpq   8004201137 <kbd_proc_data+0x258>
	} else if (data & 0x80) {
  8004200f53:	0f b6 45 fb          	movzbl -0x5(%rbp),%eax
  8004200f57:	84 c0                	test   %al,%al
  8004200f59:	79 65                	jns    8004200fc0 <kbd_proc_data+0xe1>
		// Key released
		data = (shift & E0ESC ? data : data & 0x7F);
  8004200f5b:	48 b8 28 42 37 04 80 	movabs $0x8004374228,%rax
  8004200f62:	00 00 00 
  8004200f65:	8b 00                	mov    (%rax),%eax
  8004200f67:	83 e0 40             	and    $0x40,%eax
  8004200f6a:	85 c0                	test   %eax,%eax
  8004200f6c:	75 09                	jne    8004200f77 <kbd_proc_data+0x98>
  8004200f6e:	0f b6 45 fb          	movzbl -0x5(%rbp),%eax
  8004200f72:	83 e0 7f             	and    $0x7f,%eax
  8004200f75:	eb 04                	jmp    8004200f7b <kbd_proc_data+0x9c>
  8004200f77:	0f b6 45 fb          	movzbl -0x5(%rbp),%eax
  8004200f7b:	88 45 fb             	mov    %al,-0x5(%rbp)
		shift &= ~(shiftcode[data] | E0ESC);
  8004200f7e:	0f b6 45 fb          	movzbl -0x5(%rbp),%eax
  8004200f82:	48 ba 60 b0 22 04 80 	movabs $0x800422b060,%rdx
  8004200f89:	00 00 00 
  8004200f8c:	48 98                	cltq   
  8004200f8e:	0f b6 04 02          	movzbl (%rdx,%rax,1),%eax
  8004200f92:	83 c8 40             	or     $0x40,%eax
  8004200f95:	0f b6 c0             	movzbl %al,%eax
  8004200f98:	f7 d0                	not    %eax
  8004200f9a:	89 c2                	mov    %eax,%edx
  8004200f9c:	48 b8 28 42 37 04 80 	movabs $0x8004374228,%rax
  8004200fa3:	00 00 00 
  8004200fa6:	8b 00                	mov    (%rax),%eax
  8004200fa8:	21 c2                	and    %eax,%edx
  8004200faa:	48 b8 28 42 37 04 80 	movabs $0x8004374228,%rax
  8004200fb1:	00 00 00 
  8004200fb4:	89 10                	mov    %edx,(%rax)
		return 0;
  8004200fb6:	b8 00 00 00 00       	mov    $0x0,%eax
  8004200fbb:	e9 77 01 00 00       	jmpq   8004201137 <kbd_proc_data+0x258>
	} else if (shift & E0ESC) {
  8004200fc0:	48 b8 28 42 37 04 80 	movabs $0x8004374228,%rax
  8004200fc7:	00 00 00 
  8004200fca:	8b 00                	mov    (%rax),%eax
  8004200fcc:	83 e0 40             	and    $0x40,%eax
  8004200fcf:	85 c0                	test   %eax,%eax
  8004200fd1:	74 21                	je     8004200ff4 <kbd_proc_data+0x115>
		// Last character was an E0 escape; or with 0x80
		data |= 0x80;
  8004200fd3:	80 4d fb 80          	orb    $0x80,-0x5(%rbp)
		shift &= ~E0ESC;
  8004200fd7:	48 b8 28 42 37 04 80 	movabs $0x8004374228,%rax
  8004200fde:	00 00 00 
  8004200fe1:	8b 00                	mov    (%rax),%eax
  8004200fe3:	83 e0 bf             	and    $0xffffffbf,%eax
  8004200fe6:	89 c2                	mov    %eax,%edx
  8004200fe8:	48 b8 28 42 37 04 80 	movabs $0x8004374228,%rax
  8004200fef:	00 00 00 
  8004200ff2:	89 10                	mov    %edx,(%rax)
	}

	shift |= shiftcode[data];
  8004200ff4:	0f b6 45 fb          	movzbl -0x5(%rbp),%eax
  8004200ff8:	48 ba 60 b0 22 04 80 	movabs $0x800422b060,%rdx
  8004200fff:	00 00 00 
  8004201002:	48 98                	cltq   
  8004201004:	0f b6 04 02          	movzbl (%rdx,%rax,1),%eax
  8004201008:	0f b6 d0             	movzbl %al,%edx
  800420100b:	48 b8 28 42 37 04 80 	movabs $0x8004374228,%rax
  8004201012:	00 00 00 
  8004201015:	8b 00                	mov    (%rax),%eax
  8004201017:	09 c2                	or     %eax,%edx
  8004201019:	48 b8 28 42 37 04 80 	movabs $0x8004374228,%rax
  8004201020:	00 00 00 
  8004201023:	89 10                	mov    %edx,(%rax)
	shift ^= togglecode[data];
  8004201025:	0f b6 45 fb          	movzbl -0x5(%rbp),%eax
  8004201029:	48 ba 60 b1 22 04 80 	movabs $0x800422b160,%rdx
  8004201030:	00 00 00 
  8004201033:	48 98                	cltq   
  8004201035:	0f b6 04 02          	movzbl (%rdx,%rax,1),%eax
  8004201039:	0f b6 d0             	movzbl %al,%edx
  800420103c:	48 b8 28 42 37 04 80 	movabs $0x8004374228,%rax
  8004201043:	00 00 00 
  8004201046:	8b 00                	mov    (%rax),%eax
  8004201048:	31 c2                	xor    %eax,%edx
  800420104a:	48 b8 28 42 37 04 80 	movabs $0x8004374228,%rax
  8004201051:	00 00 00 
  8004201054:	89 10                	mov    %edx,(%rax)

	c = charcode[shift & (CTL | SHIFT)][data];
  8004201056:	48 b8 28 42 37 04 80 	movabs $0x8004374228,%rax
  800420105d:	00 00 00 
  8004201060:	8b 00                	mov    (%rax),%eax
  8004201062:	83 e0 03             	and    $0x3,%eax
  8004201065:	89 c2                	mov    %eax,%edx
  8004201067:	48 b8 60 b5 22 04 80 	movabs $0x800422b560,%rax
  800420106e:	00 00 00 
  8004201071:	89 d2                	mov    %edx,%edx
  8004201073:	48 8b 14 d0          	mov    (%rax,%rdx,8),%rdx
  8004201077:	0f b6 45 fb          	movzbl -0x5(%rbp),%eax
  800420107b:	48 01 d0             	add    %rdx,%rax
  800420107e:	0f b6 00             	movzbl (%rax),%eax
  8004201081:	0f b6 c0             	movzbl %al,%eax
  8004201084:	89 45 fc             	mov    %eax,-0x4(%rbp)
	if (shift & CAPSLOCK) {
  8004201087:	48 b8 28 42 37 04 80 	movabs $0x8004374228,%rax
  800420108e:	00 00 00 
  8004201091:	8b 00                	mov    (%rax),%eax
  8004201093:	83 e0 08             	and    $0x8,%eax
  8004201096:	85 c0                	test   %eax,%eax
  8004201098:	74 22                	je     80042010bc <kbd_proc_data+0x1dd>
		if ('a' <= c && c <= 'z')
  800420109a:	83 7d fc 60          	cmpl   $0x60,-0x4(%rbp)
  800420109e:	7e 0c                	jle    80042010ac <kbd_proc_data+0x1cd>
  80042010a0:	83 7d fc 7a          	cmpl   $0x7a,-0x4(%rbp)
  80042010a4:	7f 06                	jg     80042010ac <kbd_proc_data+0x1cd>
			c += 'A' - 'a';
  80042010a6:	83 6d fc 20          	subl   $0x20,-0x4(%rbp)
  80042010aa:	eb 10                	jmp    80042010bc <kbd_proc_data+0x1dd>
		else if ('A' <= c && c <= 'Z')
  80042010ac:	83 7d fc 40          	cmpl   $0x40,-0x4(%rbp)
  80042010b0:	7e 0a                	jle    80042010bc <kbd_proc_data+0x1dd>
  80042010b2:	83 7d fc 5a          	cmpl   $0x5a,-0x4(%rbp)
  80042010b6:	7f 04                	jg     80042010bc <kbd_proc_data+0x1dd>
			c += 'a' - 'A';
  80042010b8:	83 45 fc 20          	addl   $0x20,-0x4(%rbp)
	}

	// Process special keys
	// Ctrl-Alt-Del: reboot
	if (!(~shift & (CTL | ALT)) && c == KEY_DEL) {
  80042010bc:	48 b8 28 42 37 04 80 	movabs $0x8004374228,%rax
  80042010c3:	00 00 00 
  80042010c6:	8b 00                	mov    (%rax),%eax
  80042010c8:	f7 d0                	not    %eax
  80042010ca:	83 e0 06             	and    $0x6,%eax
  80042010cd:	85 c0                	test   %eax,%eax
  80042010cf:	75 37                	jne    8004201108 <kbd_proc_data+0x229>
  80042010d1:	81 7d fc e9 00 00 00 	cmpl   $0xe9,-0x4(%rbp)
  80042010d8:	75 2e                	jne    8004201108 <kbd_proc_data+0x229>
		cprintf("Rebooting!\n");
  80042010da:	48 bf fe 71 21 04 80 	movabs $0x80042171fe,%rdi
  80042010e1:	00 00 00 
  80042010e4:	b8 00 00 00 00       	mov    $0x0,%eax
  80042010e9:	48 ba 7f 97 20 04 80 	movabs $0x800420977f,%rdx
  80042010f0:	00 00 00 
  80042010f3:	ff d2                	callq  *%rdx
  80042010f5:	c7 45 e0 92 00 00 00 	movl   $0x92,-0x20(%rbp)
  80042010fc:	c6 45 df 03          	movb   $0x3,-0x21(%rbp)
}

    static __inline void
outb(int port, uint8_t data)
{
    __asm __volatile("outb %0,%w1" : : "a" (data), "d" (port));
  8004201100:	0f b6 45 df          	movzbl -0x21(%rbp),%eax
  8004201104:	8b 55 e0             	mov    -0x20(%rbp),%edx
  8004201107:	ee                   	out    %al,(%dx)
		outb(0x92, 0x3); // courtesy of Chris Frost
	}
#ifdef VMM_GUEST
	if (c == 0x1b) {
  8004201108:	83 7d fc 1b          	cmpl   $0x1b,-0x4(%rbp)
  800420110c:	75 26                	jne    8004201134 <kbd_proc_data+0x255>
		cprintf("ESC pressed\n");
  800420110e:	48 bf 0a 72 21 04 80 	movabs $0x800421720a,%rdi
  8004201115:	00 00 00 
  8004201118:	b8 00 00 00 00       	mov    $0x0,%eax
  800420111d:	48 ba 7f 97 20 04 80 	movabs $0x800420977f,%rdx
  8004201124:	00 00 00 
  8004201127:	ff d2                	callq  *%rdx
		asm("vmcall":"=a"(r): "0"(VMX_VMCALL_BACKTOHOST));
  8004201129:	b8 05 00 00 00       	mov    $0x5,%eax
  800420112e:	0f 01 c1             	vmcall 
  8004201131:	89 45 f4             	mov    %eax,-0xc(%rbp)
	}
#endif
	return c;
  8004201134:	8b 45 fc             	mov    -0x4(%rbp),%eax
}
  8004201137:	c9                   	leaveq 
  8004201138:	c3                   	retq   

0000008004201139 <kbd_intr>:

void
kbd_intr(void)
{
  8004201139:	55                   	push   %rbp
  800420113a:	48 89 e5             	mov    %rsp,%rbp
	cons_intr(kbd_proc_data);
  800420113d:	48 bf df 0e 20 04 80 	movabs $0x8004200edf,%rdi
  8004201144:	00 00 00 
  8004201147:	48 b8 8a 11 20 04 80 	movabs $0x800420118a,%rax
  800420114e:	00 00 00 
  8004201151:	ff d0                	callq  *%rax
}
  8004201153:	5d                   	pop    %rbp
  8004201154:	c3                   	retq   

0000008004201155 <kbd_init>:

static void
kbd_init(void)
{
  8004201155:	55                   	push   %rbp
  8004201156:	48 89 e5             	mov    %rsp,%rbp
	// Drain the kbd buffer so that Bochs generates interrupts.
	kbd_intr();
  8004201159:	48 b8 39 11 20 04 80 	movabs $0x8004201139,%rax
  8004201160:	00 00 00 
  8004201163:	ff d0                	callq  *%rax
	irq_setmask_8259A(irq_mask_8259A & ~(1<<1));
  8004201165:	48 b8 d2 b6 22 04 80 	movabs $0x800422b6d2,%rax
  800420116c:	00 00 00 
  800420116f:	0f b7 00             	movzwl (%rax),%eax
  8004201172:	0f b7 c0             	movzwl %ax,%eax
  8004201175:	25 fd ff 00 00       	and    $0xfffd,%eax
  800420117a:	89 c7                	mov    %eax,%edi
  800420117c:	48 b8 d1 95 20 04 80 	movabs $0x80042095d1,%rax
  8004201183:	00 00 00 
  8004201186:	ff d0                	callq  *%rax
}
  8004201188:	5d                   	pop    %rbp
  8004201189:	c3                   	retq   

000000800420118a <cons_intr>:

// called by device interrupt routines to feed input characters
// into the circular console input buffer.
static void
cons_intr(int (*proc)(void))
{
  800420118a:	55                   	push   %rbp
  800420118b:	48 89 e5             	mov    %rsp,%rbp
  800420118e:	48 83 ec 20          	sub    $0x20,%rsp
  8004201192:	48 89 7d e8          	mov    %rdi,-0x18(%rbp)
	int c;

	while ((c = (*proc)()) != -1) {
  8004201196:	eb 6a                	jmp    8004201202 <cons_intr+0x78>
		if (c == 0)
  8004201198:	83 7d fc 00          	cmpl   $0x0,-0x4(%rbp)
  800420119c:	75 02                	jne    80042011a0 <cons_intr+0x16>
			continue;
  800420119e:	eb 62                	jmp    8004201202 <cons_intr+0x78>
		cons.buf[cons.wpos++] = c;
  80042011a0:	48 b8 20 40 37 04 80 	movabs $0x8004374020,%rax
  80042011a7:	00 00 00 
  80042011aa:	8b 80 04 02 00 00    	mov    0x204(%rax),%eax
  80042011b0:	8d 48 01             	lea    0x1(%rax),%ecx
  80042011b3:	48 ba 20 40 37 04 80 	movabs $0x8004374020,%rdx
  80042011ba:	00 00 00 
  80042011bd:	89 8a 04 02 00 00    	mov    %ecx,0x204(%rdx)
  80042011c3:	8b 55 fc             	mov    -0x4(%rbp),%edx
  80042011c6:	89 d1                	mov    %edx,%ecx
  80042011c8:	48 ba 20 40 37 04 80 	movabs $0x8004374020,%rdx
  80042011cf:	00 00 00 
  80042011d2:	89 c0                	mov    %eax,%eax
  80042011d4:	88 0c 02             	mov    %cl,(%rdx,%rax,1)
		if (cons.wpos == CONSBUFSIZE)
  80042011d7:	48 b8 20 40 37 04 80 	movabs $0x8004374020,%rax
  80042011de:	00 00 00 
  80042011e1:	8b 80 04 02 00 00    	mov    0x204(%rax),%eax
  80042011e7:	3d 00 02 00 00       	cmp    $0x200,%eax
  80042011ec:	75 14                	jne    8004201202 <cons_intr+0x78>
			cons.wpos = 0;
  80042011ee:	48 b8 20 40 37 04 80 	movabs $0x8004374020,%rax
  80042011f5:	00 00 00 
  80042011f8:	c7 80 04 02 00 00 00 	movl   $0x0,0x204(%rax)
  80042011ff:	00 00 00 
static void
cons_intr(int (*proc)(void))
{
	int c;

	while ((c = (*proc)()) != -1) {
  8004201202:	48 8b 45 e8          	mov    -0x18(%rbp),%rax
  8004201206:	ff d0                	callq  *%rax
  8004201208:	89 45 fc             	mov    %eax,-0x4(%rbp)
  800420120b:	83 7d fc ff          	cmpl   $0xffffffff,-0x4(%rbp)
  800420120f:	75 87                	jne    8004201198 <cons_intr+0xe>
			continue;
		cons.buf[cons.wpos++] = c;
		if (cons.wpos == CONSBUFSIZE)
			cons.wpos = 0;
	}
}
  8004201211:	c9                   	leaveq 
  8004201212:	c3                   	retq   

0000008004201213 <cons_getc>:

// return the next input character from the console, or 0 if none waiting
int
cons_getc(void)
{
  8004201213:	55                   	push   %rbp
  8004201214:	48 89 e5             	mov    %rsp,%rbp
  8004201217:	48 83 ec 10          	sub    $0x10,%rsp
	int c;

	// poll for any pending input characters,
	// so that this function works even when interrupts are disabled
	// (e.g., when called from the kernel monitor).
	serial_intr();
  800420121b:	48 b8 bc 08 20 04 80 	movabs $0x80042008bc,%rax
  8004201222:	00 00 00 
  8004201225:	ff d0                	callq  *%rax
	kbd_intr();
  8004201227:	48 b8 39 11 20 04 80 	movabs $0x8004201139,%rax
  800420122e:	00 00 00 
  8004201231:	ff d0                	callq  *%rax

	// grab the next character from the input buffer.
	if (cons.rpos != cons.wpos) {
  8004201233:	48 b8 20 40 37 04 80 	movabs $0x8004374020,%rax
  800420123a:	00 00 00 
  800420123d:	8b 90 00 02 00 00    	mov    0x200(%rax),%edx
  8004201243:	48 b8 20 40 37 04 80 	movabs $0x8004374020,%rax
  800420124a:	00 00 00 
  800420124d:	8b 80 04 02 00 00    	mov    0x204(%rax),%eax
  8004201253:	39 c2                	cmp    %eax,%edx
  8004201255:	74 69                	je     80042012c0 <cons_getc+0xad>
		c = cons.buf[cons.rpos++];
  8004201257:	48 b8 20 40 37 04 80 	movabs $0x8004374020,%rax
  800420125e:	00 00 00 
  8004201261:	8b 80 00 02 00 00    	mov    0x200(%rax),%eax
  8004201267:	8d 48 01             	lea    0x1(%rax),%ecx
  800420126a:	48 ba 20 40 37 04 80 	movabs $0x8004374020,%rdx
  8004201271:	00 00 00 
  8004201274:	89 8a 00 02 00 00    	mov    %ecx,0x200(%rdx)
  800420127a:	48 ba 20 40 37 04 80 	movabs $0x8004374020,%rdx
  8004201281:	00 00 00 
  8004201284:	89 c0                	mov    %eax,%eax
  8004201286:	0f b6 04 02          	movzbl (%rdx,%rax,1),%eax
  800420128a:	0f b6 c0             	movzbl %al,%eax
  800420128d:	89 45 fc             	mov    %eax,-0x4(%rbp)
		if (cons.rpos == CONSBUFSIZE)
  8004201290:	48 b8 20 40 37 04 80 	movabs $0x8004374020,%rax
  8004201297:	00 00 00 
  800420129a:	8b 80 00 02 00 00    	mov    0x200(%rax),%eax
  80042012a0:	3d 00 02 00 00       	cmp    $0x200,%eax
  80042012a5:	75 14                	jne    80042012bb <cons_getc+0xa8>
			cons.rpos = 0;
  80042012a7:	48 b8 20 40 37 04 80 	movabs $0x8004374020,%rax
  80042012ae:	00 00 00 
  80042012b1:	c7 80 00 02 00 00 00 	movl   $0x0,0x200(%rax)
  80042012b8:	00 00 00 
		return c;
  80042012bb:	8b 45 fc             	mov    -0x4(%rbp),%eax
  80042012be:	eb 05                	jmp    80042012c5 <cons_getc+0xb2>
	}
	return 0;
  80042012c0:	b8 00 00 00 00       	mov    $0x0,%eax
}
  80042012c5:	c9                   	leaveq 
  80042012c6:	c3                   	retq   

00000080042012c7 <cons_putc>:

// output a character to the console
static void
cons_putc(int c)
{
  80042012c7:	55                   	push   %rbp
  80042012c8:	48 89 e5             	mov    %rsp,%rbp
  80042012cb:	48 83 ec 10          	sub    $0x10,%rsp
  80042012cf:	89 7d fc             	mov    %edi,-0x4(%rbp)
	serial_putc(c);
  80042012d2:	8b 45 fc             	mov    -0x4(%rbp),%eax
  80042012d5:	89 c7                	mov    %eax,%edi
  80042012d7:	48 b8 e9 08 20 04 80 	movabs $0x80042008e9,%rax
  80042012de:	00 00 00 
  80042012e1:	ff d0                	callq  *%rax
	lpt_putc(c);
  80042012e3:	8b 45 fc             	mov    -0x4(%rbp),%eax
  80042012e6:	89 c7                	mov    %eax,%edi
  80042012e8:	48 b8 56 0a 20 04 80 	movabs $0x8004200a56,%rax
  80042012ef:	00 00 00 
  80042012f2:	ff d0                	callq  *%rax
	cga_putc(c);
  80042012f4:	8b 45 fc             	mov    -0x4(%rbp),%eax
  80042012f7:	89 c7                	mov    %eax,%edi
  80042012f9:	48 b8 f5 0b 20 04 80 	movabs $0x8004200bf5,%rax
  8004201300:	00 00 00 
  8004201303:	ff d0                	callq  *%rax
}
  8004201305:	c9                   	leaveq 
  8004201306:	c3                   	retq   

0000008004201307 <cons_init>:

// initialize the console devices
void
cons_init(void)
{
  8004201307:	55                   	push   %rbp
  8004201308:	48 89 e5             	mov    %rsp,%rbp
	cga_init();
  800420130b:	48 b8 db 0a 20 04 80 	movabs $0x8004200adb,%rax
  8004201312:	00 00 00 
  8004201315:	ff d0                	callq  *%rax
	kbd_init();
  8004201317:	48 b8 55 11 20 04 80 	movabs $0x8004201155,%rax
  800420131e:	00 00 00 
  8004201321:	ff d0                	callq  *%rax
	serial_init();
  8004201323:	48 b8 4e 09 20 04 80 	movabs $0x800420094e,%rax
  800420132a:	00 00 00 
  800420132d:	ff d0                	callq  *%rax

	if (!serial_exists)
  800420132f:	48 b8 00 40 37 04 80 	movabs $0x8004374000,%rax
  8004201336:	00 00 00 
  8004201339:	0f b6 00             	movzbl (%rax),%eax
  800420133c:	83 f0 01             	xor    $0x1,%eax
  800420133f:	84 c0                	test   %al,%al
  8004201341:	74 1b                	je     800420135e <cons_init+0x57>
		cprintf("Serial port does not exist!\n");
  8004201343:	48 bf 17 72 21 04 80 	movabs $0x8004217217,%rdi
  800420134a:	00 00 00 
  800420134d:	b8 00 00 00 00       	mov    $0x0,%eax
  8004201352:	48 ba 7f 97 20 04 80 	movabs $0x800420977f,%rdx
  8004201359:	00 00 00 
  800420135c:	ff d2                	callq  *%rdx
}
  800420135e:	5d                   	pop    %rbp
  800420135f:	c3                   	retq   

0000008004201360 <cputchar>:

// `High'-level console I/O.  Used by readline and cprintf.

void
cputchar(int c)
{
  8004201360:	55                   	push   %rbp
  8004201361:	48 89 e5             	mov    %rsp,%rbp
  8004201364:	48 83 ec 10          	sub    $0x10,%rsp
  8004201368:	89 7d fc             	mov    %edi,-0x4(%rbp)
	cons_putc(c);
  800420136b:	8b 45 fc             	mov    -0x4(%rbp),%eax
  800420136e:	89 c7                	mov    %eax,%edi
  8004201370:	48 b8 c7 12 20 04 80 	movabs $0x80042012c7,%rax
  8004201377:	00 00 00 
  800420137a:	ff d0                	callq  *%rax
}
  800420137c:	c9                   	leaveq 
  800420137d:	c3                   	retq   

000000800420137e <getchar>:

int
getchar(void)
{
  800420137e:	55                   	push   %rbp
  800420137f:	48 89 e5             	mov    %rsp,%rbp
  8004201382:	48 83 ec 10          	sub    $0x10,%rsp
	int c;

	while ((c = cons_getc()) == 0)
  8004201386:	48 b8 13 12 20 04 80 	movabs $0x8004201213,%rax
  800420138d:	00 00 00 
  8004201390:	ff d0                	callq  *%rax
  8004201392:	89 45 fc             	mov    %eax,-0x4(%rbp)
  8004201395:	83 7d fc 00          	cmpl   $0x0,-0x4(%rbp)
  8004201399:	74 eb                	je     8004201386 <getchar+0x8>
		/* do nothing */;
	return c;
  800420139b:	8b 45 fc             	mov    -0x4(%rbp),%eax
}
  800420139e:	c9                   	leaveq 
  800420139f:	c3                   	retq   

00000080042013a0 <iscons>:

int
iscons(int fdnum)
{
  80042013a0:	55                   	push   %rbp
  80042013a1:	48 89 e5             	mov    %rsp,%rbp
  80042013a4:	48 83 ec 04          	sub    $0x4,%rsp
  80042013a8:	89 7d fc             	mov    %edi,-0x4(%rbp)
	// used by readline
	return 1;
  80042013ab:	b8 01 00 00 00       	mov    $0x1,%eax
}
  80042013b0:	c9                   	leaveq 
  80042013b1:	c3                   	retq   

00000080042013b2 <mon_help>:

/***** Implementations of basic kernel monitor commands *****/

int
mon_help(int argc, char **argv, struct Trapframe *tf)
{
  80042013b2:	55                   	push   %rbp
  80042013b3:	48 89 e5             	mov    %rsp,%rbp
  80042013b6:	48 83 ec 30          	sub    $0x30,%rsp
  80042013ba:	89 7d ec             	mov    %edi,-0x14(%rbp)
  80042013bd:	48 89 75 e0          	mov    %rsi,-0x20(%rbp)
  80042013c1:	48 89 55 d8          	mov    %rdx,-0x28(%rbp)
	int i;

	for (i = 0; i < NCOMMANDS; i++)
  80042013c5:	c7 45 fc 00 00 00 00 	movl   $0x0,-0x4(%rbp)
  80042013cc:	eb 6c                	jmp    800420143a <mon_help+0x88>
		cprintf("%s - %s\n", commands[i].name, commands[i].desc);
  80042013ce:	48 b9 80 b5 22 04 80 	movabs $0x800422b580,%rcx
  80042013d5:	00 00 00 
  80042013d8:	8b 45 fc             	mov    -0x4(%rbp),%eax
  80042013db:	48 63 d0             	movslq %eax,%rdx
  80042013de:	48 89 d0             	mov    %rdx,%rax
  80042013e1:	48 01 c0             	add    %rax,%rax
  80042013e4:	48 01 d0             	add    %rdx,%rax
  80042013e7:	48 c1 e0 03          	shl    $0x3,%rax
  80042013eb:	48 01 c8             	add    %rcx,%rax
  80042013ee:	48 8b 48 08          	mov    0x8(%rax),%rcx
  80042013f2:	48 be 80 b5 22 04 80 	movabs $0x800422b580,%rsi
  80042013f9:	00 00 00 
  80042013fc:	8b 45 fc             	mov    -0x4(%rbp),%eax
  80042013ff:	48 63 d0             	movslq %eax,%rdx
  8004201402:	48 89 d0             	mov    %rdx,%rax
  8004201405:	48 01 c0             	add    %rax,%rax
  8004201408:	48 01 d0             	add    %rdx,%rax
  800420140b:	48 c1 e0 03          	shl    $0x3,%rax
  800420140f:	48 01 f0             	add    %rsi,%rax
  8004201412:	48 8b 00             	mov    (%rax),%rax
  8004201415:	48 89 ca             	mov    %rcx,%rdx
  8004201418:	48 89 c6             	mov    %rax,%rsi
  800420141b:	48 bf c3 72 21 04 80 	movabs $0x80042172c3,%rdi
  8004201422:	00 00 00 
  8004201425:	b8 00 00 00 00       	mov    $0x0,%eax
  800420142a:	48 b9 7f 97 20 04 80 	movabs $0x800420977f,%rcx
  8004201431:	00 00 00 
  8004201434:	ff d1                	callq  *%rcx
int
mon_help(int argc, char **argv, struct Trapframe *tf)
{
	int i;

	for (i = 0; i < NCOMMANDS; i++)
  8004201436:	83 45 fc 01          	addl   $0x1,-0x4(%rbp)
  800420143a:	8b 45 fc             	mov    -0x4(%rbp),%eax
  800420143d:	83 f8 07             	cmp    $0x7,%eax
  8004201440:	76 8c                	jbe    80042013ce <mon_help+0x1c>
		cprintf("%s - %s\n", commands[i].name, commands[i].desc);
	return 0;
  8004201442:	b8 00 00 00 00       	mov    $0x0,%eax
}
  8004201447:	c9                   	leaveq 
  8004201448:	c3                   	retq   

0000008004201449 <mon_kerninfo>:

int
mon_kerninfo(int argc, char **argv, struct Trapframe *tf)
{
  8004201449:	55                   	push   %rbp
  800420144a:	48 89 e5             	mov    %rsp,%rbp
  800420144d:	48 83 ec 30          	sub    $0x30,%rsp
  8004201451:	89 7d ec             	mov    %edi,-0x14(%rbp)
  8004201454:	48 89 75 e0          	mov    %rsi,-0x20(%rbp)
  8004201458:	48 89 55 d8          	mov    %rdx,-0x28(%rbp)
	extern char _start[], entry[], etext[], edata[], end[];

	cprintf("Special kernel symbols:\n");
  800420145c:	48 bf cc 72 21 04 80 	movabs $0x80042172cc,%rdi
  8004201463:	00 00 00 
  8004201466:	b8 00 00 00 00       	mov    $0x0,%eax
  800420146b:	48 ba 7f 97 20 04 80 	movabs $0x800420977f,%rdx
  8004201472:	00 00 00 
  8004201475:	ff d2                	callq  *%rdx
	cprintf("  _start                  %08x (phys)\n", _start);
  8004201477:	48 be 0c 00 20 00 00 	movabs $0x20000c,%rsi
  800420147e:	00 00 00 
  8004201481:	48 bf e8 72 21 04 80 	movabs $0x80042172e8,%rdi
  8004201488:	00 00 00 
  800420148b:	b8 00 00 00 00       	mov    $0x0,%eax
  8004201490:	48 ba 7f 97 20 04 80 	movabs $0x800420977f,%rdx
  8004201497:	00 00 00 
  800420149a:	ff d2                	callq  *%rdx
	cprintf("  entry  %08x (virt)  %08x (phys)\n", entry, entry - KERNBASE);
  800420149c:	48 ba 0c 00 20 00 00 	movabs $0x20000c,%rdx
  80042014a3:	00 00 00 
  80042014a6:	48 be 0c 00 20 04 80 	movabs $0x800420000c,%rsi
  80042014ad:	00 00 00 
  80042014b0:	48 bf 10 73 21 04 80 	movabs $0x8004217310,%rdi
  80042014b7:	00 00 00 
  80042014ba:	b8 00 00 00 00       	mov    $0x0,%eax
  80042014bf:	48 b9 7f 97 20 04 80 	movabs $0x800420977f,%rcx
  80042014c6:	00 00 00 
  80042014c9:	ff d1                	callq  *%rcx
	cprintf("  etext  %08x (virt)  %08x (phys)\n", etext, etext - KERNBASE);
  80042014cb:	48 ba a3 70 21 00 00 	movabs $0x2170a3,%rdx
  80042014d2:	00 00 00 
  80042014d5:	48 be a3 70 21 04 80 	movabs $0x80042170a3,%rsi
  80042014dc:	00 00 00 
  80042014df:	48 bf 38 73 21 04 80 	movabs $0x8004217338,%rdi
  80042014e6:	00 00 00 
  80042014e9:	b8 00 00 00 00       	mov    $0x0,%eax
  80042014ee:	48 b9 7f 97 20 04 80 	movabs $0x800420977f,%rcx
  80042014f5:	00 00 00 
  80042014f8:	ff d1                	callq  *%rcx
	cprintf("  edata  %08x (virt)  %08x (phys)\n", edata, edata - KERNBASE);
  80042014fa:	48 ba 3e 34 37 00 00 	movabs $0x37343e,%rdx
  8004201501:	00 00 00 
  8004201504:	48 be 3e 34 37 04 80 	movabs $0x800437343e,%rsi
  800420150b:	00 00 00 
  800420150e:	48 bf 60 73 21 04 80 	movabs $0x8004217360,%rdi
  8004201515:	00 00 00 
  8004201518:	b8 00 00 00 00       	mov    $0x0,%eax
  800420151d:	48 b9 7f 97 20 04 80 	movabs $0x800420977f,%rcx
  8004201524:	00 00 00 
  8004201527:	ff d1                	callq  *%rcx
	cprintf("  end    %08x (virt)  %08x (phys)\n", end, end - KERNBASE);
  8004201529:	48 ba 10 80 3b 00 00 	movabs $0x3b8010,%rdx
  8004201530:	00 00 00 
  8004201533:	48 be 10 80 3b 04 80 	movabs $0x80043b8010,%rsi
  800420153a:	00 00 00 
  800420153d:	48 bf 88 73 21 04 80 	movabs $0x8004217388,%rdi
  8004201544:	00 00 00 
  8004201547:	b8 00 00 00 00       	mov    $0x0,%eax
  800420154c:	48 b9 7f 97 20 04 80 	movabs $0x800420977f,%rcx
  8004201553:	00 00 00 
  8004201556:	ff d1                	callq  *%rcx
	cprintf("Kernel executable memory footprint: %dKB\n",
		ROUNDUP(end - entry, 1024) / 1024);
  8004201558:	48 c7 45 f8 00 04 00 	movq   $0x400,-0x8(%rbp)
  800420155f:	00 
  8004201560:	48 b8 0c 00 20 04 80 	movabs $0x800420000c,%rax
  8004201567:	00 00 00 
  800420156a:	48 8b 55 f8          	mov    -0x8(%rbp),%rdx
  800420156e:	48 29 c2             	sub    %rax,%rdx
  8004201571:	48 b8 10 80 3b 04 80 	movabs $0x80043b8010,%rax
  8004201578:	00 00 00 
  800420157b:	48 83 e8 01          	sub    $0x1,%rax
  800420157f:	48 01 d0             	add    %rdx,%rax
  8004201582:	48 89 45 f0          	mov    %rax,-0x10(%rbp)
  8004201586:	48 8b 45 f0          	mov    -0x10(%rbp),%rax
  800420158a:	ba 00 00 00 00       	mov    $0x0,%edx
  800420158f:	48 f7 75 f8          	divq   -0x8(%rbp)
  8004201593:	48 89 d0             	mov    %rdx,%rax
  8004201596:	48 8b 55 f0          	mov    -0x10(%rbp),%rdx
  800420159a:	48 29 c2             	sub    %rax,%rdx
  800420159d:	48 89 d0             	mov    %rdx,%rax
	cprintf("  _start                  %08x (phys)\n", _start);
	cprintf("  entry  %08x (virt)  %08x (phys)\n", entry, entry - KERNBASE);
	cprintf("  etext  %08x (virt)  %08x (phys)\n", etext, etext - KERNBASE);
	cprintf("  edata  %08x (virt)  %08x (phys)\n", edata, edata - KERNBASE);
	cprintf("  end    %08x (virt)  %08x (phys)\n", end, end - KERNBASE);
	cprintf("Kernel executable memory footprint: %dKB\n",
  80042015a0:	48 8d 90 ff 03 00 00 	lea    0x3ff(%rax),%rdx
  80042015a7:	48 85 c0             	test   %rax,%rax
  80042015aa:	48 0f 48 c2          	cmovs  %rdx,%rax
  80042015ae:	48 c1 f8 0a          	sar    $0xa,%rax
  80042015b2:	48 89 c6             	mov    %rax,%rsi
  80042015b5:	48 bf b0 73 21 04 80 	movabs $0x80042173b0,%rdi
  80042015bc:	00 00 00 
  80042015bf:	b8 00 00 00 00       	mov    $0x0,%eax
  80042015c4:	48 ba 7f 97 20 04 80 	movabs $0x800420977f,%rdx
  80042015cb:	00 00 00 
  80042015ce:	ff d2                	callq  *%rdx
		ROUNDUP(end - entry, 1024) / 1024);
	return 0;
  80042015d0:	b8 00 00 00 00       	mov    $0x0,%eax
}
  80042015d5:	c9                   	leaveq 
  80042015d6:	c3                   	retq   

00000080042015d7 <mon_backtrace>:


int
mon_backtrace(int argc, char **argv, struct Trapframe *tf)
{
  80042015d7:	55                   	push   %rbp
  80042015d8:	48 89 e5             	mov    %rsp,%rbp
  80042015db:	48 81 ec 20 05 00 00 	sub    $0x520,%rsp
  80042015e2:	89 bd fc fa ff ff    	mov    %edi,-0x504(%rbp)
  80042015e8:	48 89 b5 f0 fa ff ff 	mov    %rsi,-0x510(%rbp)
  80042015ef:	48 89 95 e8 fa ff ff 	mov    %rdx,-0x518(%rbp)

    static __inline uint64_t
read_rbp(void)
{
    uint64_t rbp;
    __asm __volatile("movq %%rbp,%0" : "=r" (rbp)::"cc","memory");
  80042015f6:	48 89 e8             	mov    %rbp,%rax
  80042015f9:	48 89 45 e0          	mov    %rax,-0x20(%rbp)
    return rbp;
  80042015fd:	48 8b 45 e0          	mov    -0x20(%rbp),%rax
	// Your cod1e here.

	uint64_t *rbp = (uint64_t *)read_rbp();
  8004201601:	48 89 45 f8          	mov    %rax,-0x8(%rbp)
	uint64_t rip;
	read_rip(rip);
  8004201605:	48 8d 05 00 00 00 00 	lea    0x0(%rip),%rax        # 800420160c <mon_backtrace+0x35>
  800420160c:	48 89 45 f0          	mov    %rax,-0x10(%rbp)
	cprintf("Stack backtrace: \n");
  8004201610:	48 bf da 73 21 04 80 	movabs $0x80042173da,%rdi
  8004201617:	00 00 00 
  800420161a:	b8 00 00 00 00       	mov    $0x0,%eax
  800420161f:	48 ba 7f 97 20 04 80 	movabs $0x800420977f,%rdx
  8004201626:	00 00 00 
  8004201629:	ff d2                	callq  *%rdx

	do {
		
		cprintf("rbp %16.0x   rip %16.0x\n", rbp, rip);
  800420162b:	48 8b 55 f0          	mov    -0x10(%rbp),%rdx
  800420162f:	48 8b 45 f8          	mov    -0x8(%rbp),%rax
  8004201633:	48 89 c6             	mov    %rax,%rsi
  8004201636:	48 bf ed 73 21 04 80 	movabs $0x80042173ed,%rdi
  800420163d:	00 00 00 
  8004201640:	b8 00 00 00 00       	mov    $0x0,%eax
  8004201645:	48 b9 7f 97 20 04 80 	movabs $0x800420977f,%rcx
  800420164c:	00 00 00 
  800420164f:	ff d1                	callq  *%rcx
		struct Ripdebuginfo info;
		debuginfo_rip(rip, &info);
  8004201651:	48 8d 95 00 fb ff ff 	lea    -0x500(%rbp),%rdx
  8004201658:	48 8b 45 f0          	mov    -0x10(%rbp),%rax
  800420165c:	48 89 d6             	mov    %rdx,%rsi
  800420165f:	48 89 c7             	mov    %rax,%rdi
  8004201662:	48 b8 7b da 20 04 80 	movabs $0x800420da7b,%rax
  8004201669:	00 00 00 
  800420166c:	ff d0                	callq  *%rax
		//file name and line within that file of the stack frame's rip, followed by the name of the function and the offset of the rip from the first instruction of the function 
        int offset=rip-info.rip_fn_addr;
  800420166e:	48 8b 45 f0          	mov    -0x10(%rbp),%rax
  8004201672:	89 c2                	mov    %eax,%edx
  8004201674:	48 8b 85 20 fb ff ff 	mov    -0x4e0(%rbp),%rax
  800420167b:	29 c2                	sub    %eax,%edx
  800420167d:	89 d0                	mov    %edx,%eax
  800420167f:	89 45 e8             	mov    %eax,-0x18(%rbp)
		cprintf(" %s:%d: %s+%16.0x ",info.rip_file, info.rip_line, info.rip_fn_name,offset);
  8004201682:	48 8b 8d 10 fb ff ff 	mov    -0x4f0(%rbp),%rcx
  8004201689:	8b 95 08 fb ff ff    	mov    -0x4f8(%rbp),%edx
  800420168f:	48 8b 85 00 fb ff ff 	mov    -0x500(%rbp),%rax
  8004201696:	8b 75 e8             	mov    -0x18(%rbp),%esi
  8004201699:	41 89 f0             	mov    %esi,%r8d
  800420169c:	48 89 c6             	mov    %rax,%rsi
  800420169f:	48 bf 06 74 21 04 80 	movabs $0x8004217406,%rdi
  80042016a6:	00 00 00 
  80042016a9:	b8 00 00 00 00       	mov    $0x0,%eax
  80042016ae:	49 b9 7f 97 20 04 80 	movabs $0x800420977f,%r9
  80042016b5:	00 00 00 
  80042016b8:	41 ff d1             	callq  *%r9
		
		cprintf("args:%x ",info.rip_fn_narg); //number of arguments
  80042016bb:	8b 85 28 fb ff ff    	mov    -0x4d8(%rbp),%eax
  80042016c1:	89 c6                	mov    %eax,%esi
  80042016c3:	48 bf 19 74 21 04 80 	movabs $0x8004217419,%rdi
  80042016ca:	00 00 00 
  80042016cd:	b8 00 00 00 00       	mov    $0x0,%eax
  80042016d2:	48 ba 7f 97 20 04 80 	movabs $0x800420977f,%rdx
  80042016d9:	00 00 00 
  80042016dc:	ff d2                	callq  *%rdx
		int i;
		for(i = 1; i <= info.rip_fn_narg; i++) 
  80042016de:	c7 45 ec 01 00 00 00 	movl   $0x1,-0x14(%rbp)
  80042016e5:	eb 39                	jmp    8004201720 <mon_backtrace+0x149>
			cprintf("%16.0x ", *((int *)(rbp) -i));     
  80042016e7:	8b 45 ec             	mov    -0x14(%rbp),%eax
  80042016ea:	48 98                	cltq   
  80042016ec:	48 c1 e0 02          	shl    $0x2,%rax
  80042016f0:	48 f7 d8             	neg    %rax
  80042016f3:	48 89 c2             	mov    %rax,%rdx
  80042016f6:	48 8b 45 f8          	mov    -0x8(%rbp),%rax
  80042016fa:	48 01 d0             	add    %rdx,%rax
  80042016fd:	8b 00                	mov    (%rax),%eax
  80042016ff:	89 c6                	mov    %eax,%esi
  8004201701:	48 bf 22 74 21 04 80 	movabs $0x8004217422,%rdi
  8004201708:	00 00 00 
  800420170b:	b8 00 00 00 00       	mov    $0x0,%eax
  8004201710:	48 ba 7f 97 20 04 80 	movabs $0x800420977f,%rdx
  8004201717:	00 00 00 
  800420171a:	ff d2                	callq  *%rdx
        int offset=rip-info.rip_fn_addr;
		cprintf(" %s:%d: %s+%16.0x ",info.rip_file, info.rip_line, info.rip_fn_name,offset);
		
		cprintf("args:%x ",info.rip_fn_narg); //number of arguments
		int i;
		for(i = 1; i <= info.rip_fn_narg; i++) 
  800420171c:	83 45 ec 01          	addl   $0x1,-0x14(%rbp)
  8004201720:	8b 85 28 fb ff ff    	mov    -0x4d8(%rbp),%eax
  8004201726:	3b 45 ec             	cmp    -0x14(%rbp),%eax
  8004201729:	7d bc                	jge    80042016e7 <mon_backtrace+0x110>
			cprintf("%16.0x ", *((int *)(rbp) -i));     
		cprintf("\n");
  800420172b:	48 bf 2a 74 21 04 80 	movabs $0x800421742a,%rdi
  8004201732:	00 00 00 
  8004201735:	b8 00 00 00 00       	mov    $0x0,%eax
  800420173a:	48 ba 7f 97 20 04 80 	movabs $0x800420977f,%rdx
  8004201741:	00 00 00 
  8004201744:	ff d2                	callq  *%rdx
		rip = (uint64_t) *(rbp+1);
  8004201746:	48 8b 45 f8          	mov    -0x8(%rbp),%rax
  800420174a:	48 8b 40 08          	mov    0x8(%rax),%rax
  800420174e:	48 89 45 f0          	mov    %rax,-0x10(%rbp)
		rbp = (uint64_t *)(*rbp);
  8004201752:	48 8b 45 f8          	mov    -0x8(%rbp),%rax
  8004201756:	48 8b 00             	mov    (%rax),%rax
  8004201759:	48 89 45 f8          	mov    %rax,-0x8(%rbp)
	} while (rbp!=0);
  800420175d:	48 83 7d f8 00       	cmpq   $0x0,-0x8(%rbp)
  8004201762:	0f 85 c3 fe ff ff    	jne    800420162b <mon_backtrace+0x54>
	return 0;
  8004201768:	b8 00 00 00 00       	mov    $0x0,%eax

}
  800420176d:	c9                   	leaveq 
  800420176e:	c3                   	retq   

000000800420176f <mon_showmappings>:

int
mon_showmappings(int argc, char **argv, struct Trapframe *tf)
{
  800420176f:	55                   	push   %rbp
  8004201770:	48 89 e5             	mov    %rsp,%rbp
  8004201773:	48 83 ec 70          	sub    $0x70,%rsp
  8004201777:	89 7d ac             	mov    %edi,-0x54(%rbp)
  800420177a:	48 89 75 a0          	mov    %rsi,-0x60(%rbp)
  800420177e:	48 89 55 98          	mov    %rdx,-0x68(%rbp)
	
	if (argc!=3)
  8004201782:	83 7d ac 03          	cmpl   $0x3,-0x54(%rbp)
  8004201786:	74 05                	je     800420178d <mon_showmappings+0x1e>
		goto usage;
  8004201788:	e9 8e 02 00 00       	jmpq   8004201a1b <mon_showmappings+0x2ac>
	char *rest;
	uint64_t lower_addr,upper_addr,i;
	lower_addr=strtol(argv[1],&rest,16);
  800420178d:	48 8b 45 a0          	mov    -0x60(%rbp),%rax
  8004201791:	48 83 c0 08          	add    $0x8,%rax
  8004201795:	48 8b 00             	mov    (%rax),%rax
  8004201798:	48 8d 4d b8          	lea    -0x48(%rbp),%rcx
  800420179c:	ba 10 00 00 00       	mov    $0x10,%edx
  80042017a1:	48 89 ce             	mov    %rcx,%rsi
  80042017a4:	48 89 c7             	mov    %rax,%rdi
  80042017a7:	48 b8 e3 f0 20 04 80 	movabs $0x800420f0e3,%rax
  80042017ae:	00 00 00 
  80042017b1:	ff d0                	callq  *%rax
  80042017b3:	48 89 45 f0          	mov    %rax,-0x10(%rbp)
	if (strcmp(rest,"")!=0){
  80042017b7:	48 8b 45 b8          	mov    -0x48(%rbp),%rax
  80042017bb:	48 be 2c 74 21 04 80 	movabs $0x800421742c,%rsi
  80042017c2:	00 00 00 
  80042017c5:	48 89 c7             	mov    %rax,%rdi
  80042017c8:	48 b8 19 ed 20 04 80 	movabs $0x800420ed19,%rax
  80042017cf:	00 00 00 
  80042017d2:	ff d0                	callq  *%rax
  80042017d4:	85 c0                	test   %eax,%eax
  80042017d6:	74 05                	je     80042017dd <mon_showmappings+0x6e>
		goto usage;
  80042017d8:	e9 3e 02 00 00       	jmpq   8004201a1b <mon_showmappings+0x2ac>
	}
	upper_addr=strtol(argv[2],&rest,16);
  80042017dd:	48 8b 45 a0          	mov    -0x60(%rbp),%rax
  80042017e1:	48 83 c0 10          	add    $0x10,%rax
  80042017e5:	48 8b 00             	mov    (%rax),%rax
  80042017e8:	48 8d 4d b8          	lea    -0x48(%rbp),%rcx
  80042017ec:	ba 10 00 00 00       	mov    $0x10,%edx
  80042017f1:	48 89 ce             	mov    %rcx,%rsi
  80042017f4:	48 89 c7             	mov    %rax,%rdi
  80042017f7:	48 b8 e3 f0 20 04 80 	movabs $0x800420f0e3,%rax
  80042017fe:	00 00 00 
  8004201801:	ff d0                	callq  *%rax
  8004201803:	48 89 45 e8          	mov    %rax,-0x18(%rbp)
	if (strcmp(rest,"")!=0){
  8004201807:	48 8b 45 b8          	mov    -0x48(%rbp),%rax
  800420180b:	48 be 2c 74 21 04 80 	movabs $0x800421742c,%rsi
  8004201812:	00 00 00 
  8004201815:	48 89 c7             	mov    %rax,%rdi
  8004201818:	48 b8 19 ed 20 04 80 	movabs $0x800420ed19,%rax
  800420181f:	00 00 00 
  8004201822:	ff d0                	callq  *%rax
  8004201824:	85 c0                	test   %eax,%eax
  8004201826:	74 05                	je     800420182d <mon_showmappings+0xbe>
		goto usage;
  8004201828:	e9 ee 01 00 00       	jmpq   8004201a1b <mon_showmappings+0x2ac>
	}
	if (upper_addr!=ROUNDUP(upper_addr,PGSIZE) || lower_addr!=ROUNDUP(lower_addr,PGSIZE))
  800420182d:	48 c7 45 e0 00 10 00 	movq   $0x1000,-0x20(%rbp)
  8004201834:	00 
  8004201835:	48 8b 45 e0          	mov    -0x20(%rbp),%rax
  8004201839:	48 8b 55 e8          	mov    -0x18(%rbp),%rdx
  800420183d:	48 01 d0             	add    %rdx,%rax
  8004201840:	48 83 e8 01          	sub    $0x1,%rax
  8004201844:	48 89 45 d8          	mov    %rax,-0x28(%rbp)
  8004201848:	48 8b 45 d8          	mov    -0x28(%rbp),%rax
  800420184c:	ba 00 00 00 00       	mov    $0x0,%edx
  8004201851:	48 f7 75 e0          	divq   -0x20(%rbp)
  8004201855:	48 89 d0             	mov    %rdx,%rax
  8004201858:	48 8b 55 d8          	mov    -0x28(%rbp),%rdx
  800420185c:	48 29 c2             	sub    %rax,%rdx
  800420185f:	48 89 d0             	mov    %rdx,%rax
  8004201862:	48 3b 45 e8          	cmp    -0x18(%rbp),%rax
  8004201866:	75 3b                	jne    80042018a3 <mon_showmappings+0x134>
  8004201868:	48 c7 45 d0 00 10 00 	movq   $0x1000,-0x30(%rbp)
  800420186f:	00 
  8004201870:	48 8b 45 d0          	mov    -0x30(%rbp),%rax
  8004201874:	48 8b 55 f0          	mov    -0x10(%rbp),%rdx
  8004201878:	48 01 d0             	add    %rdx,%rax
  800420187b:	48 83 e8 01          	sub    $0x1,%rax
  800420187f:	48 89 45 c8          	mov    %rax,-0x38(%rbp)
  8004201883:	48 8b 45 c8          	mov    -0x38(%rbp),%rax
  8004201887:	ba 00 00 00 00       	mov    $0x0,%edx
  800420188c:	48 f7 75 d0          	divq   -0x30(%rbp)
  8004201890:	48 89 d0             	mov    %rdx,%rax
  8004201893:	48 8b 55 c8          	mov    -0x38(%rbp),%rdx
  8004201897:	48 29 c2             	sub    %rax,%rdx
  800420189a:	48 89 d0             	mov    %rdx,%rax
  800420189d:	48 3b 45 f0          	cmp    -0x10(%rbp),%rax
  80042018a1:	74 25                	je     80042018c8 <mon_showmappings+0x159>
	{
		cprintf("showmappings: address must be aligned in PGSIZE!\n");
  80042018a3:	48 bf 30 74 21 04 80 	movabs $0x8004217430,%rdi
  80042018aa:	00 00 00 
  80042018ad:	b8 00 00 00 00       	mov    $0x0,%eax
  80042018b2:	48 ba 7f 97 20 04 80 	movabs $0x800420977f,%rdx
  80042018b9:	00 00 00 
  80042018bc:	ff d2                	callq  *%rdx
		return 0;
  80042018be:	b8 00 00 00 00       	mov    $0x0,%eax
  80042018c3:	e9 73 01 00 00       	jmpq   8004201a3b <mon_showmappings+0x2cc>
	}
	if (upper_addr<lower_addr)
  80042018c8:	48 8b 45 e8          	mov    -0x18(%rbp),%rax
  80042018cc:	48 3b 45 f0          	cmp    -0x10(%rbp),%rax
  80042018d0:	73 25                	jae    80042018f7 <mon_showmappings+0x188>
	{
		cprintf("showmappings: upper_address must not be less than lower_address!\n");
  80042018d2:	48 bf 68 74 21 04 80 	movabs $0x8004217468,%rdi
  80042018d9:	00 00 00 
  80042018dc:	b8 00 00 00 00       	mov    $0x0,%eax
  80042018e1:	48 ba 7f 97 20 04 80 	movabs $0x800420977f,%rdx
  80042018e8:	00 00 00 
  80042018eb:	ff d2                	callq  *%rdx
		return 0;
  80042018ed:	b8 00 00 00 00       	mov    $0x0,%eax
  80042018f2:	e9 44 01 00 00       	jmpq   8004201a3b <mon_showmappings+0x2cc>
	}


	//cprintf("suc!\n");
	pte_t *pte;
	cprintf("   Virtual Address\t  Physical Address\tPTE_P\tPTE_W\tPTE_U\n");
  80042018f7:	48 bf b0 74 21 04 80 	movabs $0x80042174b0,%rdi
  80042018fe:	00 00 00 
  8004201901:	b8 00 00 00 00       	mov    $0x0,%eax
  8004201906:	48 ba 7f 97 20 04 80 	movabs $0x800420977f,%rdx
  800420190d:	00 00 00 
  8004201910:	ff d2                	callq  *%rdx
	i=lower_addr;
  8004201912:	48 8b 45 f0          	mov    -0x10(%rbp),%rax
  8004201916:	48 89 45 f8          	mov    %rax,-0x8(%rbp)
	while(i<=upper_addr)
  800420191a:	e9 e7 00 00 00       	jmpq   8004201a06 <mon_showmappings+0x297>
	{
		//cprintf("boot_pml4e:%x\n",boot_pml4e);
		pte=pml4e_walk(boot_pml4e,(void *)i,0);
  800420191f:	48 8b 4d f8          	mov    -0x8(%rbp),%rcx
  8004201923:	48 b8 70 57 37 04 80 	movabs $0x8004375770,%rax
  800420192a:	00 00 00 
  800420192d:	48 8b 00             	mov    (%rax),%rax
  8004201930:	ba 00 00 00 00       	mov    $0x0,%edx
  8004201935:	48 89 ce             	mov    %rcx,%rsi
  8004201938:	48 89 c7             	mov    %rax,%rdi
  800420193b:	48 b8 a2 3c 20 04 80 	movabs $0x8004203ca2,%rax
  8004201942:	00 00 00 
  8004201945:	ff d0                	callq  *%rax
  8004201947:	48 89 45 c0          	mov    %rax,-0x40(%rbp)
		cprintf("0x%016x\t",i);
  800420194b:	48 8b 45 f8          	mov    -0x8(%rbp),%rax
  800420194f:	48 89 c6             	mov    %rax,%rsi
  8004201952:	48 bf e9 74 21 04 80 	movabs $0x80042174e9,%rdi
  8004201959:	00 00 00 
  800420195c:	b8 00 00 00 00       	mov    $0x0,%eax
  8004201961:	48 ba 7f 97 20 04 80 	movabs $0x800420977f,%rdx
  8004201968:	00 00 00 
  800420196b:	ff d2                	callq  *%rdx
		if (!pte) {
  800420196d:	48 83 7d c0 00       	cmpq   $0x0,-0x40(%rbp)
  8004201972:	75 1d                	jne    8004201991 <mon_showmappings+0x222>
			cprintf("address not mapped\n");
  8004201974:	48 bf f2 74 21 04 80 	movabs $0x80042174f2,%rdi
  800420197b:	00 00 00 
  800420197e:	b8 00 00 00 00       	mov    $0x0,%eax
  8004201983:	48 ba 7f 97 20 04 80 	movabs $0x800420977f,%rdx
  800420198a:	00 00 00 
  800420198d:	ff d2                	callq  *%rdx
  800420198f:	eb 6d                	jmp    80042019fe <mon_showmappings+0x28f>
			
		}
		else
		cprintf("0x%016x\t%5d\t%5d\t%5d\n",PTE_ADDR(*pte),(*pte & PTE_P)?1:0,(*pte& PTE_W)?1:0,(*pte & PTE_U)?1:0);
  8004201991:	48 8b 45 c0          	mov    -0x40(%rbp),%rax
  8004201995:	48 8b 00             	mov    (%rax),%rax
  8004201998:	83 e0 04             	and    $0x4,%eax
  800420199b:	48 85 c0             	test   %rax,%rax
  800420199e:	0f 95 c0             	setne  %al
  80042019a1:	0f b6 f8             	movzbl %al,%edi
  80042019a4:	48 8b 45 c0          	mov    -0x40(%rbp),%rax
  80042019a8:	48 8b 00             	mov    (%rax),%rax
  80042019ab:	83 e0 02             	and    $0x2,%eax
  80042019ae:	48 85 c0             	test   %rax,%rax
  80042019b1:	0f 95 c0             	setne  %al
  80042019b4:	0f b6 d0             	movzbl %al,%edx
  80042019b7:	48 8b 45 c0          	mov    -0x40(%rbp),%rax
  80042019bb:	48 8b 00             	mov    (%rax),%rax
  80042019be:	83 e0 01             	and    $0x1,%eax
  80042019c1:	48 85 c0             	test   %rax,%rax
  80042019c4:	0f 95 c0             	setne  %al
  80042019c7:	0f b6 c0             	movzbl %al,%eax
  80042019ca:	48 8b 4d c0          	mov    -0x40(%rbp),%rcx
  80042019ce:	48 8b 09             	mov    (%rcx),%rcx
  80042019d1:	48 89 ce             	mov    %rcx,%rsi
  80042019d4:	48 81 e6 00 f0 ff ff 	and    $0xfffffffffffff000,%rsi
  80042019db:	41 89 f8             	mov    %edi,%r8d
  80042019de:	89 d1                	mov    %edx,%ecx
  80042019e0:	89 c2                	mov    %eax,%edx
  80042019e2:	48 bf 06 75 21 04 80 	movabs $0x8004217506,%rdi
  80042019e9:	00 00 00 
  80042019ec:	b8 00 00 00 00       	mov    $0x0,%eax
  80042019f1:	49 b9 7f 97 20 04 80 	movabs $0x800420977f,%r9
  80042019f8:	00 00 00 
  80042019fb:	41 ff d1             	callq  *%r9

		i+=PGSIZE;
  80042019fe:	48 81 45 f8 00 10 00 	addq   $0x1000,-0x8(%rbp)
  8004201a05:	00 

	//cprintf("suc!\n");
	pte_t *pte;
	cprintf("   Virtual Address\t  Physical Address\tPTE_P\tPTE_W\tPTE_U\n");
	i=lower_addr;
	while(i<=upper_addr)
  8004201a06:	48 8b 45 f8          	mov    -0x8(%rbp),%rax
  8004201a0a:	48 3b 45 e8          	cmp    -0x18(%rbp),%rax
  8004201a0e:	0f 86 0b ff ff ff    	jbe    800420191f <mon_showmappings+0x1b0>
		cprintf("0x%016x\t%5d\t%5d\t%5d\n",PTE_ADDR(*pte),(*pte & PTE_P)?1:0,(*pte& PTE_W)?1:0,(*pte & PTE_U)?1:0);

		i+=PGSIZE;

	};
	return 0;
  8004201a14:	b8 00 00 00 00       	mov    $0x0,%eax
  8004201a19:	eb 20                	jmp    8004201a3b <mon_showmappings+0x2cc>

	usage:
	  cprintf("usage: showmappings <lower_address(base 16)> <upper_address(base 16)>\n");
  8004201a1b:	48 bf 20 75 21 04 80 	movabs $0x8004217520,%rdi
  8004201a22:	00 00 00 
  8004201a25:	b8 00 00 00 00       	mov    $0x0,%eax
  8004201a2a:	48 ba 7f 97 20 04 80 	movabs $0x800420977f,%rdx
  8004201a31:	00 00 00 
  8004201a34:	ff d2                	callq  *%rdx
	  return 0;
  8004201a36:	b8 00 00 00 00       	mov    $0x0,%eax
	
}
  8004201a3b:	c9                   	leaveq 
  8004201a3c:	c3                   	retq   

0000008004201a3d <mon_setpermission>:

int
mon_setpermission(int argc, char **argv, struct Trapframe *tf)
{
  8004201a3d:	55                   	push   %rbp
  8004201a3e:	48 89 e5             	mov    %rsp,%rbp
  8004201a41:	53                   	push   %rbx
  8004201a42:	48 83 ec 48          	sub    $0x48,%rsp
  8004201a46:	89 7d cc             	mov    %edi,-0x34(%rbp)
  8004201a49:	48 89 75 c0          	mov    %rsi,-0x40(%rbp)
  8004201a4d:	48 89 55 b8          	mov    %rdx,-0x48(%rbp)
	if (argc!=5)
  8004201a51:	83 7d cc 05          	cmpl   $0x5,-0x34(%rbp)
  8004201a55:	74 05                	je     8004201a5c <mon_setpermission+0x1f>
		goto usage;
  8004201a57:	e9 17 03 00 00       	jmpq   8004201d73 <mon_setpermission+0x336>
	char *rest;
	uint64_t addr;
	int permission;

	//cprintf("1\n");
	addr=strtol(argv[1],&rest,16);
  8004201a5c:	48 8b 45 c0          	mov    -0x40(%rbp),%rax
  8004201a60:	48 83 c0 08          	add    $0x8,%rax
  8004201a64:	48 8b 00             	mov    (%rax),%rax
  8004201a67:	48 8d 4d d0          	lea    -0x30(%rbp),%rcx
  8004201a6b:	ba 10 00 00 00       	mov    $0x10,%edx
  8004201a70:	48 89 ce             	mov    %rcx,%rsi
  8004201a73:	48 89 c7             	mov    %rax,%rdi
  8004201a76:	48 b8 e3 f0 20 04 80 	movabs $0x800420f0e3,%rax
  8004201a7d:	00 00 00 
  8004201a80:	ff d0                	callq  *%rax
  8004201a82:	48 89 45 e8          	mov    %rax,-0x18(%rbp)
	if (strcmp(rest,"")!=0){
  8004201a86:	48 8b 45 d0          	mov    -0x30(%rbp),%rax
  8004201a8a:	48 be 2c 74 21 04 80 	movabs $0x800421742c,%rsi
  8004201a91:	00 00 00 
  8004201a94:	48 89 c7             	mov    %rax,%rdi
  8004201a97:	48 b8 19 ed 20 04 80 	movabs $0x800420ed19,%rax
  8004201a9e:	00 00 00 
  8004201aa1:	ff d0                	callq  *%rax
  8004201aa3:	85 c0                	test   %eax,%eax
  8004201aa5:	74 05                	je     8004201aac <mon_setpermission+0x6f>
		goto usage;
  8004201aa7:	e9 c7 02 00 00       	jmpq   8004201d73 <mon_setpermission+0x336>
	}

	if (!(strcmp(argv[2],"0")==0 || strcmp(argv[2],"1")==0))
  8004201aac:	48 8b 45 c0          	mov    -0x40(%rbp),%rax
  8004201ab0:	48 83 c0 10          	add    $0x10,%rax
  8004201ab4:	48 8b 00             	mov    (%rax),%rax
  8004201ab7:	48 be 67 75 21 04 80 	movabs $0x8004217567,%rsi
  8004201abe:	00 00 00 
  8004201ac1:	48 89 c7             	mov    %rax,%rdi
  8004201ac4:	48 b8 19 ed 20 04 80 	movabs $0x800420ed19,%rax
  8004201acb:	00 00 00 
  8004201ace:	ff d0                	callq  *%rax
  8004201ad0:	85 c0                	test   %eax,%eax
  8004201ad2:	74 2d                	je     8004201b01 <mon_setpermission+0xc4>
  8004201ad4:	48 8b 45 c0          	mov    -0x40(%rbp),%rax
  8004201ad8:	48 83 c0 10          	add    $0x10,%rax
  8004201adc:	48 8b 00             	mov    (%rax),%rax
  8004201adf:	48 be 69 75 21 04 80 	movabs $0x8004217569,%rsi
  8004201ae6:	00 00 00 
  8004201ae9:	48 89 c7             	mov    %rax,%rdi
  8004201aec:	48 b8 19 ed 20 04 80 	movabs $0x800420ed19,%rax
  8004201af3:	00 00 00 
  8004201af6:	ff d0                	callq  *%rax
  8004201af8:	85 c0                	test   %eax,%eax
  8004201afa:	74 05                	je     8004201b01 <mon_setpermission+0xc4>
		goto usage;
  8004201afc:	e9 72 02 00 00       	jmpq   8004201d73 <mon_setpermission+0x336>
	if (!(strcmp(argv[3],"0")==0 || strcmp(argv[3],"1")==0))
  8004201b01:	48 8b 45 c0          	mov    -0x40(%rbp),%rax
  8004201b05:	48 83 c0 18          	add    $0x18,%rax
  8004201b09:	48 8b 00             	mov    (%rax),%rax
  8004201b0c:	48 be 67 75 21 04 80 	movabs $0x8004217567,%rsi
  8004201b13:	00 00 00 
  8004201b16:	48 89 c7             	mov    %rax,%rdi
  8004201b19:	48 b8 19 ed 20 04 80 	movabs $0x800420ed19,%rax
  8004201b20:	00 00 00 
  8004201b23:	ff d0                	callq  *%rax
  8004201b25:	85 c0                	test   %eax,%eax
  8004201b27:	74 2d                	je     8004201b56 <mon_setpermission+0x119>
  8004201b29:	48 8b 45 c0          	mov    -0x40(%rbp),%rax
  8004201b2d:	48 83 c0 18          	add    $0x18,%rax
  8004201b31:	48 8b 00             	mov    (%rax),%rax
  8004201b34:	48 be 69 75 21 04 80 	movabs $0x8004217569,%rsi
  8004201b3b:	00 00 00 
  8004201b3e:	48 89 c7             	mov    %rax,%rdi
  8004201b41:	48 b8 19 ed 20 04 80 	movabs $0x800420ed19,%rax
  8004201b48:	00 00 00 
  8004201b4b:	ff d0                	callq  *%rax
  8004201b4d:	85 c0                	test   %eax,%eax
  8004201b4f:	74 05                	je     8004201b56 <mon_setpermission+0x119>
		goto usage;
  8004201b51:	e9 1d 02 00 00       	jmpq   8004201d73 <mon_setpermission+0x336>
	if (!(strcmp(argv[4],"0")==0 || strcmp(argv[4],"1")==0))
  8004201b56:	48 8b 45 c0          	mov    -0x40(%rbp),%rax
  8004201b5a:	48 83 c0 20          	add    $0x20,%rax
  8004201b5e:	48 8b 00             	mov    (%rax),%rax
  8004201b61:	48 be 67 75 21 04 80 	movabs $0x8004217567,%rsi
  8004201b68:	00 00 00 
  8004201b6b:	48 89 c7             	mov    %rax,%rdi
  8004201b6e:	48 b8 19 ed 20 04 80 	movabs $0x800420ed19,%rax
  8004201b75:	00 00 00 
  8004201b78:	ff d0                	callq  *%rax
  8004201b7a:	85 c0                	test   %eax,%eax
  8004201b7c:	74 2d                	je     8004201bab <mon_setpermission+0x16e>
  8004201b7e:	48 8b 45 c0          	mov    -0x40(%rbp),%rax
  8004201b82:	48 83 c0 20          	add    $0x20,%rax
  8004201b86:	48 8b 00             	mov    (%rax),%rax
  8004201b89:	48 be 69 75 21 04 80 	movabs $0x8004217569,%rsi
  8004201b90:	00 00 00 
  8004201b93:	48 89 c7             	mov    %rax,%rdi
  8004201b96:	48 b8 19 ed 20 04 80 	movabs $0x800420ed19,%rax
  8004201b9d:	00 00 00 
  8004201ba0:	ff d0                	callq  *%rax
  8004201ba2:	85 c0                	test   %eax,%eax
  8004201ba4:	74 05                	je     8004201bab <mon_setpermission+0x16e>
		goto usage;
  8004201ba6:	e9 c8 01 00 00       	jmpq   8004201d73 <mon_setpermission+0x336>

	

	pte_t* pte=pml4e_walk(boot_pml4e,(void *)addr,0);
  8004201bab:	48 8b 4d e8          	mov    -0x18(%rbp),%rcx
  8004201baf:	48 b8 70 57 37 04 80 	movabs $0x8004375770,%rax
  8004201bb6:	00 00 00 
  8004201bb9:	48 8b 00             	mov    (%rax),%rax
  8004201bbc:	ba 00 00 00 00       	mov    $0x0,%edx
  8004201bc1:	48 89 ce             	mov    %rcx,%rsi
  8004201bc4:	48 89 c7             	mov    %rax,%rdi
  8004201bc7:	48 b8 a2 3c 20 04 80 	movabs $0x8004203ca2,%rax
  8004201bce:	00 00 00 
  8004201bd1:	ff d0                	callq  *%rax
  8004201bd3:	48 89 45 e0          	mov    %rax,-0x20(%rbp)
	if (!pte) {
  8004201bd7:	48 83 7d e0 00       	cmpq   $0x0,-0x20(%rbp)
  8004201bdc:	75 25                	jne    8004201c03 <mon_setpermission+0x1c6>
		cprintf("address not mapped\n");
  8004201bde:	48 bf f2 74 21 04 80 	movabs $0x80042174f2,%rdi
  8004201be5:	00 00 00 
  8004201be8:	b8 00 00 00 00       	mov    $0x0,%eax
  8004201bed:	48 ba 7f 97 20 04 80 	movabs $0x800420977f,%rdx
  8004201bf4:	00 00 00 
  8004201bf7:	ff d2                	callq  *%rdx
		return 0;
  8004201bf9:	b8 00 00 00 00       	mov    $0x0,%eax
  8004201bfe:	e9 90 01 00 00       	jmpq   8004201d93 <mon_setpermission+0x356>
	}
	pte_t tmp=*pte;
  8004201c03:	48 8b 45 e0          	mov    -0x20(%rbp),%rax
  8004201c07:	48 8b 00             	mov    (%rax),%rax
  8004201c0a:	48 89 45 d8          	mov    %rax,-0x28(%rbp)
	//permission=(strcmp(argv[2],"0")==0?0:PTE_P)|(strcmp(argv[3],"0")==0?0:PTE_W)|(strcmp(argv[4],"0")==0?0:PTE_U)
	*pte= PTE_ADDR(*pte)|(strcmp(argv[2],"0")==0?0:PTE_P)|(strcmp(argv[3],"0")==0?0:PTE_W)|(strcmp(argv[4],"0")==0?0:PTE_U);
  8004201c0e:	48 8b 45 e0          	mov    -0x20(%rbp),%rax
  8004201c12:	48 8b 00             	mov    (%rax),%rax
  8004201c15:	48 25 00 f0 ff ff    	and    $0xfffffffffffff000,%rax
  8004201c1b:	48 89 c3             	mov    %rax,%rbx
  8004201c1e:	48 8b 45 c0          	mov    -0x40(%rbp),%rax
  8004201c22:	48 83 c0 10          	add    $0x10,%rax
  8004201c26:	48 8b 00             	mov    (%rax),%rax
  8004201c29:	48 be 67 75 21 04 80 	movabs $0x8004217567,%rsi
  8004201c30:	00 00 00 
  8004201c33:	48 89 c7             	mov    %rax,%rdi
  8004201c36:	48 b8 19 ed 20 04 80 	movabs $0x800420ed19,%rax
  8004201c3d:	00 00 00 
  8004201c40:	ff d0                	callq  *%rax
  8004201c42:	85 c0                	test   %eax,%eax
  8004201c44:	0f 95 c0             	setne  %al
  8004201c47:	0f b6 c0             	movzbl %al,%eax
  8004201c4a:	48 98                	cltq   
  8004201c4c:	48 09 c3             	or     %rax,%rbx
  8004201c4f:	48 8b 45 c0          	mov    -0x40(%rbp),%rax
  8004201c53:	48 83 c0 18          	add    $0x18,%rax
  8004201c57:	48 8b 00             	mov    (%rax),%rax
  8004201c5a:	48 be 67 75 21 04 80 	movabs $0x8004217567,%rsi
  8004201c61:	00 00 00 
  8004201c64:	48 89 c7             	mov    %rax,%rdi
  8004201c67:	48 b8 19 ed 20 04 80 	movabs $0x800420ed19,%rax
  8004201c6e:	00 00 00 
  8004201c71:	ff d0                	callq  *%rax
  8004201c73:	85 c0                	test   %eax,%eax
  8004201c75:	75 07                	jne    8004201c7e <mon_setpermission+0x241>
  8004201c77:	b8 00 00 00 00       	mov    $0x0,%eax
  8004201c7c:	eb 05                	jmp    8004201c83 <mon_setpermission+0x246>
  8004201c7e:	b8 02 00 00 00       	mov    $0x2,%eax
  8004201c83:	48 09 c3             	or     %rax,%rbx
  8004201c86:	48 8b 45 c0          	mov    -0x40(%rbp),%rax
  8004201c8a:	48 83 c0 20          	add    $0x20,%rax
  8004201c8e:	48 8b 00             	mov    (%rax),%rax
  8004201c91:	48 be 67 75 21 04 80 	movabs $0x8004217567,%rsi
  8004201c98:	00 00 00 
  8004201c9b:	48 89 c7             	mov    %rax,%rdi
  8004201c9e:	48 b8 19 ed 20 04 80 	movabs $0x800420ed19,%rax
  8004201ca5:	00 00 00 
  8004201ca8:	ff d0                	callq  *%rax
  8004201caa:	85 c0                	test   %eax,%eax
  8004201cac:	75 07                	jne    8004201cb5 <mon_setpermission+0x278>
  8004201cae:	b8 00 00 00 00       	mov    $0x0,%eax
  8004201cb3:	eb 05                	jmp    8004201cba <mon_setpermission+0x27d>
  8004201cb5:	b8 04 00 00 00       	mov    $0x4,%eax
  8004201cba:	48 09 c3             	or     %rax,%rbx
  8004201cbd:	48 89 da             	mov    %rbx,%rdx
  8004201cc0:	48 8b 45 e0          	mov    -0x20(%rbp),%rax
  8004201cc4:	48 89 10             	mov    %rdx,(%rax)
	cprintf("permission changed from %d %d %d ",(tmp & PTE_P)?1:0,(tmp& PTE_W)?1:0,(tmp & PTE_U)?1:0);
  8004201cc7:	48 8b 45 d8          	mov    -0x28(%rbp),%rax
  8004201ccb:	83 e0 04             	and    $0x4,%eax
  8004201cce:	48 85 c0             	test   %rax,%rax
  8004201cd1:	0f 95 c0             	setne  %al
  8004201cd4:	0f b6 c8             	movzbl %al,%ecx
  8004201cd7:	48 8b 45 d8          	mov    -0x28(%rbp),%rax
  8004201cdb:	83 e0 02             	and    $0x2,%eax
  8004201cde:	48 85 c0             	test   %rax,%rax
  8004201ce1:	0f 95 c0             	setne  %al
  8004201ce4:	0f b6 d0             	movzbl %al,%edx
  8004201ce7:	48 8b 45 d8          	mov    -0x28(%rbp),%rax
  8004201ceb:	83 e0 01             	and    $0x1,%eax
  8004201cee:	48 85 c0             	test   %rax,%rax
  8004201cf1:	0f 95 c0             	setne  %al
  8004201cf4:	0f b6 c0             	movzbl %al,%eax
  8004201cf7:	89 c6                	mov    %eax,%esi
  8004201cf9:	48 bf 70 75 21 04 80 	movabs $0x8004217570,%rdi
  8004201d00:	00 00 00 
  8004201d03:	b8 00 00 00 00       	mov    $0x0,%eax
  8004201d08:	49 b8 7f 97 20 04 80 	movabs $0x800420977f,%r8
  8004201d0f:	00 00 00 
  8004201d12:	41 ff d0             	callq  *%r8
	cprintf("to %d %d %d \n",(*pte & PTE_P)?1:0,(*pte& PTE_W)?1:0,(*pte & PTE_U)?1:0);
  8004201d15:	48 8b 45 e0          	mov    -0x20(%rbp),%rax
  8004201d19:	48 8b 00             	mov    (%rax),%rax
  8004201d1c:	83 e0 04             	and    $0x4,%eax
  8004201d1f:	48 85 c0             	test   %rax,%rax
  8004201d22:	0f 95 c0             	setne  %al
  8004201d25:	0f b6 c8             	movzbl %al,%ecx
  8004201d28:	48 8b 45 e0          	mov    -0x20(%rbp),%rax
  8004201d2c:	48 8b 00             	mov    (%rax),%rax
  8004201d2f:	83 e0 02             	and    $0x2,%eax
  8004201d32:	48 85 c0             	test   %rax,%rax
  8004201d35:	0f 95 c0             	setne  %al
  8004201d38:	0f b6 d0             	movzbl %al,%edx
  8004201d3b:	48 8b 45 e0          	mov    -0x20(%rbp),%rax
  8004201d3f:	48 8b 00             	mov    (%rax),%rax
  8004201d42:	83 e0 01             	and    $0x1,%eax
  8004201d45:	48 85 c0             	test   %rax,%rax
  8004201d48:	0f 95 c0             	setne  %al
  8004201d4b:	0f b6 c0             	movzbl %al,%eax
  8004201d4e:	89 c6                	mov    %eax,%esi
  8004201d50:	48 bf 92 75 21 04 80 	movabs $0x8004217592,%rdi
  8004201d57:	00 00 00 
  8004201d5a:	b8 00 00 00 00       	mov    $0x0,%eax
  8004201d5f:	49 b8 7f 97 20 04 80 	movabs $0x800420977f,%r8
  8004201d66:	00 00 00 
  8004201d69:	41 ff d0             	callq  *%r8
	return 0;
  8004201d6c:	b8 00 00 00 00       	mov    $0x0,%eax
  8004201d71:	eb 20                	jmp    8004201d93 <mon_setpermission+0x356>
	usage:
	  cprintf("usage: setpermission <address(base 16)> <PTE_P(0|1)> <PTE_U(0|1)> <PTE_W(0|1)>\n");
  8004201d73:	48 bf a0 75 21 04 80 	movabs $0x80042175a0,%rdi
  8004201d7a:	00 00 00 
  8004201d7d:	b8 00 00 00 00       	mov    $0x0,%eax
  8004201d82:	48 ba 7f 97 20 04 80 	movabs $0x800420977f,%rdx
  8004201d89:	00 00 00 
  8004201d8c:	ff d2                	callq  *%rdx
	  return 0;
  8004201d8e:	b8 00 00 00 00       	mov    $0x0,%eax
}
  8004201d93:	48 83 c4 48          	add    $0x48,%rsp
  8004201d97:	5b                   	pop    %rbx
  8004201d98:	5d                   	pop    %rbp
  8004201d99:	c3                   	retq   

0000008004201d9a <mon_dump>:


int
mon_dump(int argc, char **argv, struct Trapframe *tf)
{
  8004201d9a:	55                   	push   %rbp
  8004201d9b:	48 89 e5             	mov    %rsp,%rbp
  8004201d9e:	48 83 ec 70          	sub    $0x70,%rsp
  8004201da2:	89 7d ac             	mov    %edi,-0x54(%rbp)
  8004201da5:	48 89 75 a0          	mov    %rsi,-0x60(%rbp)
  8004201da9:	48 89 55 98          	mov    %rdx,-0x68(%rbp)
	if (argc!=4)
  8004201dad:	83 7d ac 04          	cmpl   $0x4,-0x54(%rbp)
  8004201db1:	74 05                	je     8004201db8 <mon_dump+0x1e>
		goto usage;
  8004201db3:	e9 72 03 00 00       	jmpq   800420212a <mon_dump+0x390>
	char *rest;
	uint64_t lower_addr,upper_addr,i;
	if (!(strcmp(argv[1],"p")==0 || strcmp(argv[1],"v")==0))
  8004201db8:	48 8b 45 a0          	mov    -0x60(%rbp),%rax
  8004201dbc:	48 83 c0 08          	add    $0x8,%rax
  8004201dc0:	48 8b 00             	mov    (%rax),%rax
  8004201dc3:	48 be f0 75 21 04 80 	movabs $0x80042175f0,%rsi
  8004201dca:	00 00 00 
  8004201dcd:	48 89 c7             	mov    %rax,%rdi
  8004201dd0:	48 b8 19 ed 20 04 80 	movabs $0x800420ed19,%rax
  8004201dd7:	00 00 00 
  8004201dda:	ff d0                	callq  *%rax
  8004201ddc:	85 c0                	test   %eax,%eax
  8004201dde:	74 2d                	je     8004201e0d <mon_dump+0x73>
  8004201de0:	48 8b 45 a0          	mov    -0x60(%rbp),%rax
  8004201de4:	48 83 c0 08          	add    $0x8,%rax
  8004201de8:	48 8b 00             	mov    (%rax),%rax
  8004201deb:	48 be f2 75 21 04 80 	movabs $0x80042175f2,%rsi
  8004201df2:	00 00 00 
  8004201df5:	48 89 c7             	mov    %rax,%rdi
  8004201df8:	48 b8 19 ed 20 04 80 	movabs $0x800420ed19,%rax
  8004201dff:	00 00 00 
  8004201e02:	ff d0                	callq  *%rax
  8004201e04:	85 c0                	test   %eax,%eax
  8004201e06:	74 05                	je     8004201e0d <mon_dump+0x73>
		goto usage;
  8004201e08:	e9 1d 03 00 00       	jmpq   800420212a <mon_dump+0x390>
	//cprintf("1\n");
	lower_addr=strtol(argv[2],&rest,16);
  8004201e0d:	48 8b 45 a0          	mov    -0x60(%rbp),%rax
  8004201e11:	48 83 c0 10          	add    $0x10,%rax
  8004201e15:	48 8b 00             	mov    (%rax),%rax
  8004201e18:	48 8d 4d b8          	lea    -0x48(%rbp),%rcx
  8004201e1c:	ba 10 00 00 00       	mov    $0x10,%edx
  8004201e21:	48 89 ce             	mov    %rcx,%rsi
  8004201e24:	48 89 c7             	mov    %rax,%rdi
  8004201e27:	48 b8 e3 f0 20 04 80 	movabs $0x800420f0e3,%rax
  8004201e2e:	00 00 00 
  8004201e31:	ff d0                	callq  *%rax
  8004201e33:	48 89 45 f0          	mov    %rax,-0x10(%rbp)
	if (strcmp(rest,"")!=0){
  8004201e37:	48 8b 45 b8          	mov    -0x48(%rbp),%rax
  8004201e3b:	48 be 2c 74 21 04 80 	movabs $0x800421742c,%rsi
  8004201e42:	00 00 00 
  8004201e45:	48 89 c7             	mov    %rax,%rdi
  8004201e48:	48 b8 19 ed 20 04 80 	movabs $0x800420ed19,%rax
  8004201e4f:	00 00 00 
  8004201e52:	ff d0                	callq  *%rax
  8004201e54:	85 c0                	test   %eax,%eax
  8004201e56:	74 05                	je     8004201e5d <mon_dump+0xc3>
		goto usage;
  8004201e58:	e9 cd 02 00 00       	jmpq   800420212a <mon_dump+0x390>
	}
	upper_addr=strtol(argv[3],&rest,16);
  8004201e5d:	48 8b 45 a0          	mov    -0x60(%rbp),%rax
  8004201e61:	48 83 c0 18          	add    $0x18,%rax
  8004201e65:	48 8b 00             	mov    (%rax),%rax
  8004201e68:	48 8d 4d b8          	lea    -0x48(%rbp),%rcx
  8004201e6c:	ba 10 00 00 00       	mov    $0x10,%edx
  8004201e71:	48 89 ce             	mov    %rcx,%rsi
  8004201e74:	48 89 c7             	mov    %rax,%rdi
  8004201e77:	48 b8 e3 f0 20 04 80 	movabs $0x800420f0e3,%rax
  8004201e7e:	00 00 00 
  8004201e81:	ff d0                	callq  *%rax
  8004201e83:	48 89 45 e8          	mov    %rax,-0x18(%rbp)
	if (strcmp(rest,"")!=0){
  8004201e87:	48 8b 45 b8          	mov    -0x48(%rbp),%rax
  8004201e8b:	48 be 2c 74 21 04 80 	movabs $0x800421742c,%rsi
  8004201e92:	00 00 00 
  8004201e95:	48 89 c7             	mov    %rax,%rdi
  8004201e98:	48 b8 19 ed 20 04 80 	movabs $0x800420ed19,%rax
  8004201e9f:	00 00 00 
  8004201ea2:	ff d0                	callq  *%rax
  8004201ea4:	85 c0                	test   %eax,%eax
  8004201ea6:	74 05                	je     8004201ead <mon_dump+0x113>
		goto usage;
  8004201ea8:	e9 7d 02 00 00       	jmpq   800420212a <mon_dump+0x390>
	}

	if (upper_addr<lower_addr)
  8004201ead:	48 8b 45 e8          	mov    -0x18(%rbp),%rax
  8004201eb1:	48 3b 45 f0          	cmp    -0x10(%rbp),%rax
  8004201eb5:	73 25                	jae    8004201edc <mon_dump+0x142>
	{
		cprintf("dump: upper_address must not be less than lower_address!\n");
  8004201eb7:	48 bf f8 75 21 04 80 	movabs $0x80042175f8,%rdi
  8004201ebe:	00 00 00 
  8004201ec1:	b8 00 00 00 00       	mov    $0x0,%eax
  8004201ec6:	48 ba 7f 97 20 04 80 	movabs $0x800420977f,%rdx
  8004201ecd:	00 00 00 
  8004201ed0:	ff d2                	callq  *%rdx
		return 0;
  8004201ed2:	b8 00 00 00 00       	mov    $0x0,%eax
  8004201ed7:	e9 6e 02 00 00       	jmpq   800420214a <mon_dump+0x3b0>
	}
	if (strcmp(argv[1],"p")==0)
  8004201edc:	48 8b 45 a0          	mov    -0x60(%rbp),%rax
  8004201ee0:	48 83 c0 08          	add    $0x8,%rax
  8004201ee4:	48 8b 00             	mov    (%rax),%rax
  8004201ee7:	48 be f0 75 21 04 80 	movabs $0x80042175f0,%rsi
  8004201eee:	00 00 00 
  8004201ef1:	48 89 c7             	mov    %rax,%rdi
  8004201ef4:	48 b8 19 ed 20 04 80 	movabs $0x800420ed19,%rax
  8004201efb:	00 00 00 
  8004201efe:	ff d0                	callq  *%rax
  8004201f00:	85 c0                	test   %eax,%eax
  8004201f02:	75 5f                	jne    8004201f63 <mon_dump+0x1c9>
	{
		if (PPN(upper_addr) >= npages){
  8004201f04:	48 8b 45 e8          	mov    -0x18(%rbp),%rax
  8004201f08:	48 c1 e8 0c          	shr    $0xc,%rax
  8004201f0c:	48 89 c2             	mov    %rax,%rdx
  8004201f0f:	48 b8 78 57 37 04 80 	movabs $0x8004375778,%rax
  8004201f16:	00 00 00 
  8004201f19:	48 8b 00             	mov    (%rax),%rax
  8004201f1c:	48 39 c2             	cmp    %rax,%rdx
  8004201f1f:	72 25                	jb     8004201f46 <mon_dump+0x1ac>
			cprintf("dump: address must not be extend across page boundaries!\n");
  8004201f21:	48 bf 38 76 21 04 80 	movabs $0x8004217638,%rdi
  8004201f28:	00 00 00 
  8004201f2b:	b8 00 00 00 00       	mov    $0x0,%eax
  8004201f30:	48 ba 7f 97 20 04 80 	movabs $0x800420977f,%rdx
  8004201f37:	00 00 00 
  8004201f3a:	ff d2                	callq  *%rdx
			return 0;
  8004201f3c:	b8 00 00 00 00       	mov    $0x0,%eax
  8004201f41:	e9 04 02 00 00       	jmpq   800420214a <mon_dump+0x3b0>
		}
		cprintf("  Physical Address\tContent of Address\n");
  8004201f46:	48 bf 78 76 21 04 80 	movabs $0x8004217678,%rdi
  8004201f4d:	00 00 00 
  8004201f50:	b8 00 00 00 00       	mov    $0x0,%eax
  8004201f55:	48 ba 7f 97 20 04 80 	movabs $0x800420977f,%rdx
  8004201f5c:	00 00 00 
  8004201f5f:	ff d2                	callq  *%rdx
  8004201f61:	eb 1b                	jmp    8004201f7e <mon_dump+0x1e4>
	}
	else
		cprintf("   Virtual Address\tContent of Address\n");
  8004201f63:	48 bf a0 76 21 04 80 	movabs $0x80042176a0,%rdi
  8004201f6a:	00 00 00 
  8004201f6d:	b8 00 00 00 00       	mov    $0x0,%eax
  8004201f72:	48 ba 7f 97 20 04 80 	movabs $0x800420977f,%rdx
  8004201f79:	00 00 00 
  8004201f7c:	ff d2                	callq  *%rdx


	i=lower_addr;
  8004201f7e:	48 8b 45 f0          	mov    -0x10(%rbp),%rax
  8004201f82:	48 89 45 f8          	mov    %rax,-0x8(%rbp)

	while(i<=upper_addr)
  8004201f86:	e9 8a 01 00 00       	jmpq   8004202115 <mon_dump+0x37b>
	{
		cprintf("0x%016x\t0x%016x\n",i,(strcmp(argv[1],"p")==0)?*((uint64_t*)KADDR(i)):*((uint64_t*)KADDR(PADDR(i))));
  8004201f8b:	48 8b 45 a0          	mov    -0x60(%rbp),%rax
  8004201f8f:	48 83 c0 08          	add    $0x8,%rax
  8004201f93:	48 8b 00             	mov    (%rax),%rax
  8004201f96:	48 be f0 75 21 04 80 	movabs $0x80042175f0,%rsi
  8004201f9d:	00 00 00 
  8004201fa0:	48 89 c7             	mov    %rax,%rdi
  8004201fa3:	48 b8 19 ed 20 04 80 	movabs $0x800420ed19,%rax
  8004201faa:	00 00 00 
  8004201fad:	ff d0                	callq  *%rax
  8004201faf:	85 c0                	test   %eax,%eax
  8004201fb1:	75 73                	jne    8004202026 <mon_dump+0x28c>
  8004201fb3:	48 8b 45 f8          	mov    -0x8(%rbp),%rax
  8004201fb7:	48 89 45 e0          	mov    %rax,-0x20(%rbp)
  8004201fbb:	48 8b 45 e0          	mov    -0x20(%rbp),%rax
  8004201fbf:	48 c1 e8 0c          	shr    $0xc,%rax
  8004201fc3:	89 45 dc             	mov    %eax,-0x24(%rbp)
  8004201fc6:	8b 55 dc             	mov    -0x24(%rbp),%edx
  8004201fc9:	48 b8 78 57 37 04 80 	movabs $0x8004375778,%rax
  8004201fd0:	00 00 00 
  8004201fd3:	48 8b 00             	mov    (%rax),%rax
  8004201fd6:	48 39 c2             	cmp    %rax,%rdx
  8004201fd9:	72 32                	jb     800420200d <mon_dump+0x273>
  8004201fdb:	48 8b 45 e0          	mov    -0x20(%rbp),%rax
  8004201fdf:	48 89 c1             	mov    %rax,%rcx
  8004201fe2:	48 ba c8 76 21 04 80 	movabs $0x80042176c8,%rdx
  8004201fe9:	00 00 00 
  8004201fec:	be f0 00 00 00       	mov    $0xf0,%esi
  8004201ff1:	48 bf eb 76 21 04 80 	movabs $0x80042176eb,%rdi
  8004201ff8:	00 00 00 
  8004201ffb:	b8 00 00 00 00       	mov    $0x0,%eax
  8004202000:	49 b8 08 06 20 04 80 	movabs $0x8004200608,%r8
  8004202007:	00 00 00 
  800420200a:	41 ff d0             	callq  *%r8
  800420200d:	48 ba 00 00 00 04 80 	movabs $0x8004000000,%rdx
  8004202014:	00 00 00 
  8004202017:	48 8b 45 e0          	mov    -0x20(%rbp),%rax
  800420201b:	48 01 d0             	add    %rdx,%rax
  800420201e:	48 8b 00             	mov    (%rax),%rax
  8004202021:	e9 c5 00 00 00       	jmpq   80042020eb <mon_dump+0x351>
  8004202026:	48 8b 45 f8          	mov    -0x8(%rbp),%rax
  800420202a:	48 89 45 d0          	mov    %rax,-0x30(%rbp)
  800420202e:	48 b8 ff ff ff 03 80 	movabs $0x8003ffffff,%rax
  8004202035:	00 00 00 
  8004202038:	48 39 45 d0          	cmp    %rax,-0x30(%rbp)
  800420203c:	77 32                	ja     8004202070 <mon_dump+0x2d6>
  800420203e:	48 8b 45 d0          	mov    -0x30(%rbp),%rax
  8004202042:	48 89 c1             	mov    %rax,%rcx
  8004202045:	48 ba 00 77 21 04 80 	movabs $0x8004217700,%rdx
  800420204c:	00 00 00 
  800420204f:	be f0 00 00 00       	mov    $0xf0,%esi
  8004202054:	48 bf eb 76 21 04 80 	movabs $0x80042176eb,%rdi
  800420205b:	00 00 00 
  800420205e:	b8 00 00 00 00       	mov    $0x0,%eax
  8004202063:	49 b8 08 06 20 04 80 	movabs $0x8004200608,%r8
  800420206a:	00 00 00 
  800420206d:	41 ff d0             	callq  *%r8
  8004202070:	48 ba 00 00 00 fc 7f 	movabs $0xffffff7ffc000000,%rdx
  8004202077:	ff ff ff 
  800420207a:	48 8b 45 d0          	mov    -0x30(%rbp),%rax
  800420207e:	48 01 d0             	add    %rdx,%rax
  8004202081:	48 89 45 c8          	mov    %rax,-0x38(%rbp)
  8004202085:	48 8b 45 c8          	mov    -0x38(%rbp),%rax
  8004202089:	48 c1 e8 0c          	shr    $0xc,%rax
  800420208d:	89 45 c4             	mov    %eax,-0x3c(%rbp)
  8004202090:	8b 55 c4             	mov    -0x3c(%rbp),%edx
  8004202093:	48 b8 78 57 37 04 80 	movabs $0x8004375778,%rax
  800420209a:	00 00 00 
  800420209d:	48 8b 00             	mov    (%rax),%rax
  80042020a0:	48 39 c2             	cmp    %rax,%rdx
  80042020a3:	72 32                	jb     80042020d7 <mon_dump+0x33d>
  80042020a5:	48 8b 45 c8          	mov    -0x38(%rbp),%rax
  80042020a9:	48 89 c1             	mov    %rax,%rcx
  80042020ac:	48 ba c8 76 21 04 80 	movabs $0x80042176c8,%rdx
  80042020b3:	00 00 00 
  80042020b6:	be f0 00 00 00       	mov    $0xf0,%esi
  80042020bb:	48 bf eb 76 21 04 80 	movabs $0x80042176eb,%rdi
  80042020c2:	00 00 00 
  80042020c5:	b8 00 00 00 00       	mov    $0x0,%eax
  80042020ca:	49 b8 08 06 20 04 80 	movabs $0x8004200608,%r8
  80042020d1:	00 00 00 
  80042020d4:	41 ff d0             	callq  *%r8
  80042020d7:	48 ba 00 00 00 04 80 	movabs $0x8004000000,%rdx
  80042020de:	00 00 00 
  80042020e1:	48 8b 45 c8          	mov    -0x38(%rbp),%rax
  80042020e5:	48 01 d0             	add    %rdx,%rax
  80042020e8:	48 8b 00             	mov    (%rax),%rax
  80042020eb:	48 8b 4d f8          	mov    -0x8(%rbp),%rcx
  80042020ef:	48 89 c2             	mov    %rax,%rdx
  80042020f2:	48 89 ce             	mov    %rcx,%rsi
  80042020f5:	48 bf 24 77 21 04 80 	movabs $0x8004217724,%rdi
  80042020fc:	00 00 00 
  80042020ff:	b8 00 00 00 00       	mov    $0x0,%eax
  8004202104:	48 b9 7f 97 20 04 80 	movabs $0x800420977f,%rcx
  800420210b:	00 00 00 
  800420210e:	ff d1                	callq  *%rcx
		i+=4;
  8004202110:	48 83 45 f8 04       	addq   $0x4,-0x8(%rbp)
		cprintf("   Virtual Address\tContent of Address\n");


	i=lower_addr;

	while(i<=upper_addr)
  8004202115:	48 8b 45 f8          	mov    -0x8(%rbp),%rax
  8004202119:	48 3b 45 e8          	cmp    -0x18(%rbp),%rax
  800420211d:	0f 86 68 fe ff ff    	jbe    8004201f8b <mon_dump+0x1f1>

	};



	return 0;
  8004202123:	b8 00 00 00 00       	mov    $0x0,%eax
  8004202128:	eb 20                	jmp    800420214a <mon_dump+0x3b0>
	usage:
	  cprintf("usage: dump p|v <lower_address(base 16)> <upper_address(base 16)>\n");
  800420212a:	48 bf 38 77 21 04 80 	movabs $0x8004217738,%rdi
  8004202131:	00 00 00 
  8004202134:	b8 00 00 00 00       	mov    $0x0,%eax
  8004202139:	48 ba 7f 97 20 04 80 	movabs $0x800420977f,%rdx
  8004202140:	00 00 00 
  8004202143:	ff d2                	callq  *%rdx
	  return 0;
  8004202145:	b8 00 00 00 00       	mov    $0x0,%eax
}
  800420214a:	c9                   	leaveq 
  800420214b:	c3                   	retq   

000000800420214c <mon_continue>:

int mon_continue(int argc, char **argv, struct Trapframe *tf)
{
  800420214c:	55                   	push   %rbp
  800420214d:	48 89 e5             	mov    %rsp,%rbp
  8004202150:	48 83 ec 20          	sub    $0x20,%rsp
  8004202154:	89 7d fc             	mov    %edi,-0x4(%rbp)
  8004202157:	48 89 75 f0          	mov    %rsi,-0x10(%rbp)
  800420215b:	48 89 55 e8          	mov    %rdx,-0x18(%rbp)
    if (argc!=1) goto usage;
  800420215f:	83 7d fc 01          	cmpl   $0x1,-0x4(%rbp)
  8004202163:	74 26                	je     800420218b <mon_continue+0x3f>
  8004202165:	90                   	nop
    }
    tf->tf_eflags=tf->tf_eflags & ~FL_TF;
    env_run(curenv);
    return 0;
    usage:
	  cprintf("usage: setpermission <address(base 16)> <PTE_P(0|1)> <PTE_U(0|1)> <PTE_W(0|1)>\n");
  8004202166:	48 bf a0 75 21 04 80 	movabs $0x80042175a0,%rdi
  800420216d:	00 00 00 
  8004202170:	b8 00 00 00 00       	mov    $0x0,%eax
  8004202175:	48 ba 7f 97 20 04 80 	movabs $0x800420977f,%rdx
  800420217c:	00 00 00 
  800420217f:	ff d2                	callq  *%rdx
	  return 0;
  8004202181:	b8 00 00 00 00       	mov    $0x0,%eax
  8004202186:	e9 84 00 00 00       	jmpq   800420220f <mon_continue+0xc3>
}

int mon_continue(int argc, char **argv, struct Trapframe *tf)
{
    if (argc!=1) goto usage;
    if (!tf) {
  800420218b:	48 83 7d e8 00       	cmpq   $0x0,-0x18(%rbp)
  8004202190:	75 22                	jne    80042021b4 <mon_continue+0x68>
        cprintf("continue: trapframe null\n");
  8004202192:	48 bf 7b 77 21 04 80 	movabs $0x800421777b,%rdi
  8004202199:	00 00 00 
  800420219c:	b8 00 00 00 00       	mov    $0x0,%eax
  80042021a1:	48 ba 7f 97 20 04 80 	movabs $0x800420977f,%rdx
  80042021a8:	00 00 00 
  80042021ab:	ff d2                	callq  *%rdx
        return 0;
  80042021ad:	b8 00 00 00 00       	mov    $0x0,%eax
  80042021b2:	eb 5b                	jmp    800420220f <mon_continue+0xc3>
    }
    tf->tf_eflags=tf->tf_eflags & ~FL_TF;
  80042021b4:	48 8b 45 e8          	mov    -0x18(%rbp),%rax
  80042021b8:	48 8b 80 a8 00 00 00 	mov    0xa8(%rax),%rax
  80042021bf:	80 e4 fe             	and    $0xfe,%ah
  80042021c2:	48 89 c2             	mov    %rax,%rdx
  80042021c5:	48 8b 45 e8          	mov    -0x18(%rbp),%rax
  80042021c9:	48 89 90 a8 00 00 00 	mov    %rdx,0xa8(%rax)
    env_run(curenv);
  80042021d0:	48 b8 5a 5e 21 04 80 	movabs $0x8004215e5a,%rax
  80042021d7:	00 00 00 
  80042021da:	ff d0                	callq  *%rax
  80042021dc:	48 ba 20 70 37 04 80 	movabs $0x8004377020,%rdx
  80042021e3:	00 00 00 
  80042021e6:	48 98                	cltq   
  80042021e8:	48 c1 e0 03          	shl    $0x3,%rax
  80042021ec:	48 89 c1             	mov    %rax,%rcx
  80042021ef:	48 c1 e1 04          	shl    $0x4,%rcx
  80042021f3:	48 01 c8             	add    %rcx,%rax
  80042021f6:	48 01 d0             	add    %rdx,%rax
  80042021f9:	48 83 c0 08          	add    $0x8,%rax
  80042021fd:	48 8b 00             	mov    (%rax),%rax
  8004202200:	48 89 c7             	mov    %rax,%rdi
  8004202203:	48 b8 13 92 20 04 80 	movabs $0x8004209213,%rax
  800420220a:	00 00 00 
  800420220d:	ff d0                	callq  *%rax
    return 0;
    usage:
	  cprintf("usage: setpermission <address(base 16)> <PTE_P(0|1)> <PTE_U(0|1)> <PTE_W(0|1)>\n");
	  return 0;
}
  800420220f:	c9                   	leaveq 
  8004202210:	c3                   	retq   

0000008004202211 <mon_si>:

int mon_si(int argc, char **argv, struct Trapframe *tf) {
  8004202211:	55                   	push   %rbp
  8004202212:	48 89 e5             	mov    %rsp,%rbp
  8004202215:	48 83 ec 20          	sub    $0x20,%rsp
  8004202219:	89 7d fc             	mov    %edi,-0x4(%rbp)
  800420221c:	48 89 75 f0          	mov    %rsi,-0x10(%rbp)
  8004202220:	48 89 55 e8          	mov    %rdx,-0x18(%rbp)
   if (argc!=1) goto usage;
  8004202224:	83 7d fc 01          	cmpl   $0x1,-0x4(%rbp)
  8004202228:	74 26                	je     8004202250 <mon_si+0x3f>
  800420222a:	90                   	nop
    }
    tf->tf_eflags = tf->tf_eflags| FL_TF;
    env_run(curenv);
    return 0;
    usage:
	  cprintf("usage: si\n");
  800420222b:	48 bf a9 77 21 04 80 	movabs $0x80042177a9,%rdi
  8004202232:	00 00 00 
  8004202235:	b8 00 00 00 00       	mov    $0x0,%eax
  800420223a:	48 ba 7f 97 20 04 80 	movabs $0x800420977f,%rdx
  8004202241:	00 00 00 
  8004202244:	ff d2                	callq  *%rdx
	  return 0;
  8004202246:	b8 00 00 00 00       	mov    $0x0,%eax
  800420224b:	e9 84 00 00 00       	jmpq   80042022d4 <mon_si+0xc3>
	  return 0;
}

int mon_si(int argc, char **argv, struct Trapframe *tf) {
   if (argc!=1) goto usage;
    if (!tf) {
  8004202250:	48 83 7d e8 00       	cmpq   $0x0,-0x18(%rbp)
  8004202255:	75 22                	jne    8004202279 <mon_si+0x68>
        cprintf("si: trapframe null\n");
  8004202257:	48 bf 95 77 21 04 80 	movabs $0x8004217795,%rdi
  800420225e:	00 00 00 
  8004202261:	b8 00 00 00 00       	mov    $0x0,%eax
  8004202266:	48 ba 7f 97 20 04 80 	movabs $0x800420977f,%rdx
  800420226d:	00 00 00 
  8004202270:	ff d2                	callq  *%rdx
        return 0;
  8004202272:	b8 00 00 00 00       	mov    $0x0,%eax
  8004202277:	eb 5b                	jmp    80042022d4 <mon_si+0xc3>
    }
    tf->tf_eflags = tf->tf_eflags| FL_TF;
  8004202279:	48 8b 45 e8          	mov    -0x18(%rbp),%rax
  800420227d:	48 8b 80 a8 00 00 00 	mov    0xa8(%rax),%rax
  8004202284:	80 cc 01             	or     $0x1,%ah
  8004202287:	48 89 c2             	mov    %rax,%rdx
  800420228a:	48 8b 45 e8          	mov    -0x18(%rbp),%rax
  800420228e:	48 89 90 a8 00 00 00 	mov    %rdx,0xa8(%rax)
    env_run(curenv);
  8004202295:	48 b8 5a 5e 21 04 80 	movabs $0x8004215e5a,%rax
  800420229c:	00 00 00 
  800420229f:	ff d0                	callq  *%rax
  80042022a1:	48 ba 20 70 37 04 80 	movabs $0x8004377020,%rdx
  80042022a8:	00 00 00 
  80042022ab:	48 98                	cltq   
  80042022ad:	48 c1 e0 03          	shl    $0x3,%rax
  80042022b1:	48 89 c1             	mov    %rax,%rcx
  80042022b4:	48 c1 e1 04          	shl    $0x4,%rcx
  80042022b8:	48 01 c8             	add    %rcx,%rax
  80042022bb:	48 01 d0             	add    %rdx,%rax
  80042022be:	48 83 c0 08          	add    $0x8,%rax
  80042022c2:	48 8b 00             	mov    (%rax),%rax
  80042022c5:	48 89 c7             	mov    %rax,%rdi
  80042022c8:	48 b8 13 92 20 04 80 	movabs $0x8004209213,%rax
  80042022cf:	00 00 00 
  80042022d2:	ff d0                	callq  *%rax
    return 0;
    usage:
	  cprintf("usage: si\n");
	  return 0;
}
  80042022d4:	c9                   	leaveq 
  80042022d5:	c3                   	retq   

00000080042022d6 <runcmd>:
#define WHITESPACE "\t\r\n "
#define MAXARGS 16

static int
runcmd(char *buf, struct Trapframe *tf)
{
  80042022d6:	55                   	push   %rbp
  80042022d7:	48 89 e5             	mov    %rsp,%rbp
  80042022da:	48 81 ec a0 00 00 00 	sub    $0xa0,%rsp
  80042022e1:	48 89 bd 68 ff ff ff 	mov    %rdi,-0x98(%rbp)
  80042022e8:	48 89 b5 60 ff ff ff 	mov    %rsi,-0xa0(%rbp)
	int argc;
	char *argv[MAXARGS];
	int i;

	// Parse the command buffer into whitespace-separated arguments
	argc = 0;
  80042022ef:	c7 45 fc 00 00 00 00 	movl   $0x0,-0x4(%rbp)
	argv[argc] = 0;
  80042022f6:	8b 45 fc             	mov    -0x4(%rbp),%eax
  80042022f9:	48 98                	cltq   
  80042022fb:	48 c7 84 c5 70 ff ff 	movq   $0x0,-0x90(%rbp,%rax,8)
  8004202302:	ff 00 00 00 00 
	while (1) {
		// gobble whitespace
		while (*buf && strchr(WHITESPACE, *buf))
  8004202307:	eb 15                	jmp    800420231e <runcmd+0x48>
			*buf++ = 0;
  8004202309:	48 8b 85 68 ff ff ff 	mov    -0x98(%rbp),%rax
  8004202310:	48 8d 50 01          	lea    0x1(%rax),%rdx
  8004202314:	48 89 95 68 ff ff ff 	mov    %rdx,-0x98(%rbp)
  800420231b:	c6 00 00             	movb   $0x0,(%rax)
	// Parse the command buffer into whitespace-separated arguments
	argc = 0;
	argv[argc] = 0;
	while (1) {
		// gobble whitespace
		while (*buf && strchr(WHITESPACE, *buf))
  800420231e:	48 8b 85 68 ff ff ff 	mov    -0x98(%rbp),%rax
  8004202325:	0f b6 00             	movzbl (%rax),%eax
  8004202328:	84 c0                	test   %al,%al
  800420232a:	74 2a                	je     8004202356 <runcmd+0x80>
  800420232c:	48 8b 85 68 ff ff ff 	mov    -0x98(%rbp),%rax
  8004202333:	0f b6 00             	movzbl (%rax),%eax
  8004202336:	0f be c0             	movsbl %al,%eax
  8004202339:	89 c6                	mov    %eax,%esi
  800420233b:	48 bf b4 77 21 04 80 	movabs $0x80042177b4,%rdi
  8004202342:	00 00 00 
  8004202345:	48 b8 dd ed 20 04 80 	movabs $0x800420eddd,%rax
  800420234c:	00 00 00 
  800420234f:	ff d0                	callq  *%rax
  8004202351:	48 85 c0             	test   %rax,%rax
  8004202354:	75 b3                	jne    8004202309 <runcmd+0x33>
			*buf++ = 0;
		if (*buf == 0)
  8004202356:	48 8b 85 68 ff ff ff 	mov    -0x98(%rbp),%rax
  800420235d:	0f b6 00             	movzbl (%rax),%eax
  8004202360:	84 c0                	test   %al,%al
  8004202362:	75 21                	jne    8004202385 <runcmd+0xaf>
			break;
  8004202364:	90                   	nop
		}
		argv[argc++] = buf;
		while (*buf && !strchr(WHITESPACE, *buf))
			buf++;
	}
	argv[argc] = 0;
  8004202365:	8b 45 fc             	mov    -0x4(%rbp),%eax
  8004202368:	48 98                	cltq   
  800420236a:	48 c7 84 c5 70 ff ff 	movq   $0x0,-0x90(%rbp,%rax,8)
  8004202371:	ff 00 00 00 00 

	// Lookup and invoke the command
	if (argc == 0)
  8004202376:	83 7d fc 00          	cmpl   $0x0,-0x4(%rbp)
  800420237a:	0f 85 a1 00 00 00    	jne    8004202421 <runcmd+0x14b>
  8004202380:	e9 92 00 00 00       	jmpq   8004202417 <runcmd+0x141>
			*buf++ = 0;
		if (*buf == 0)
			break;

		// save and scan past next arg
		if (argc == MAXARGS-1) {
  8004202385:	83 7d fc 0f          	cmpl   $0xf,-0x4(%rbp)
  8004202389:	75 2a                	jne    80042023b5 <runcmd+0xdf>
			cprintf("Too many arguments (max %d)\n", MAXARGS);
  800420238b:	be 10 00 00 00       	mov    $0x10,%esi
  8004202390:	48 bf b9 77 21 04 80 	movabs $0x80042177b9,%rdi
  8004202397:	00 00 00 
  800420239a:	b8 00 00 00 00       	mov    $0x0,%eax
  800420239f:	48 ba 7f 97 20 04 80 	movabs $0x800420977f,%rdx
  80042023a6:	00 00 00 
  80042023a9:	ff d2                	callq  *%rdx
			return 0;
  80042023ab:	b8 00 00 00 00       	mov    $0x0,%eax
  80042023b0:	e9 30 01 00 00       	jmpq   80042024e5 <runcmd+0x20f>
		}
		argv[argc++] = buf;
  80042023b5:	8b 45 fc             	mov    -0x4(%rbp),%eax
  80042023b8:	8d 50 01             	lea    0x1(%rax),%edx
  80042023bb:	89 55 fc             	mov    %edx,-0x4(%rbp)
  80042023be:	48 98                	cltq   
  80042023c0:	48 8b 95 68 ff ff ff 	mov    -0x98(%rbp),%rdx
  80042023c7:	48 89 94 c5 70 ff ff 	mov    %rdx,-0x90(%rbp,%rax,8)
  80042023ce:	ff 
		while (*buf && !strchr(WHITESPACE, *buf))
  80042023cf:	eb 08                	jmp    80042023d9 <runcmd+0x103>
			buf++;
  80042023d1:	48 83 85 68 ff ff ff 	addq   $0x1,-0x98(%rbp)
  80042023d8:	01 
		if (argc == MAXARGS-1) {
			cprintf("Too many arguments (max %d)\n", MAXARGS);
			return 0;
		}
		argv[argc++] = buf;
		while (*buf && !strchr(WHITESPACE, *buf))
  80042023d9:	48 8b 85 68 ff ff ff 	mov    -0x98(%rbp),%rax
  80042023e0:	0f b6 00             	movzbl (%rax),%eax
  80042023e3:	84 c0                	test   %al,%al
  80042023e5:	74 2a                	je     8004202411 <runcmd+0x13b>
  80042023e7:	48 8b 85 68 ff ff ff 	mov    -0x98(%rbp),%rax
  80042023ee:	0f b6 00             	movzbl (%rax),%eax
  80042023f1:	0f be c0             	movsbl %al,%eax
  80042023f4:	89 c6                	mov    %eax,%esi
  80042023f6:	48 bf b4 77 21 04 80 	movabs $0x80042177b4,%rdi
  80042023fd:	00 00 00 
  8004202400:	48 b8 dd ed 20 04 80 	movabs $0x800420eddd,%rax
  8004202407:	00 00 00 
  800420240a:	ff d0                	callq  *%rax
  800420240c:	48 85 c0             	test   %rax,%rax
  800420240f:	74 c0                	je     80042023d1 <runcmd+0xfb>
			buf++;
	}
  8004202411:	90                   	nop
	// Parse the command buffer into whitespace-separated arguments
	argc = 0;
	argv[argc] = 0;
	while (1) {
		// gobble whitespace
		while (*buf && strchr(WHITESPACE, *buf))
  8004202412:	e9 07 ff ff ff       	jmpq   800420231e <runcmd+0x48>
	}
	argv[argc] = 0;

	// Lookup and invoke the command
	if (argc == 0)
		return 0;
  8004202417:	b8 00 00 00 00       	mov    $0x0,%eax
  800420241c:	e9 c4 00 00 00       	jmpq   80042024e5 <runcmd+0x20f>
	for (i = 0; i < NCOMMANDS; i++) {
  8004202421:	c7 45 f8 00 00 00 00 	movl   $0x0,-0x8(%rbp)
  8004202428:	e9 82 00 00 00       	jmpq   80042024af <runcmd+0x1d9>
		if (strcmp(argv[0], commands[i].name) == 0)
  800420242d:	48 b9 80 b5 22 04 80 	movabs $0x800422b580,%rcx
  8004202434:	00 00 00 
  8004202437:	8b 45 f8             	mov    -0x8(%rbp),%eax
  800420243a:	48 63 d0             	movslq %eax,%rdx
  800420243d:	48 89 d0             	mov    %rdx,%rax
  8004202440:	48 01 c0             	add    %rax,%rax
  8004202443:	48 01 d0             	add    %rdx,%rax
  8004202446:	48 c1 e0 03          	shl    $0x3,%rax
  800420244a:	48 01 c8             	add    %rcx,%rax
  800420244d:	48 8b 10             	mov    (%rax),%rdx
  8004202450:	48 8b 85 70 ff ff ff 	mov    -0x90(%rbp),%rax
  8004202457:	48 89 d6             	mov    %rdx,%rsi
  800420245a:	48 89 c7             	mov    %rax,%rdi
  800420245d:	48 b8 19 ed 20 04 80 	movabs $0x800420ed19,%rax
  8004202464:	00 00 00 
  8004202467:	ff d0                	callq  *%rax
  8004202469:	85 c0                	test   %eax,%eax
  800420246b:	75 3e                	jne    80042024ab <runcmd+0x1d5>
			return commands[i].func(argc, argv, tf);
  800420246d:	48 b9 80 b5 22 04 80 	movabs $0x800422b580,%rcx
  8004202474:	00 00 00 
  8004202477:	8b 45 f8             	mov    -0x8(%rbp),%eax
  800420247a:	48 63 d0             	movslq %eax,%rdx
  800420247d:	48 89 d0             	mov    %rdx,%rax
  8004202480:	48 01 c0             	add    %rax,%rax
  8004202483:	48 01 d0             	add    %rdx,%rax
  8004202486:	48 c1 e0 03          	shl    $0x3,%rax
  800420248a:	48 01 c8             	add    %rcx,%rax
  800420248d:	48 83 c0 10          	add    $0x10,%rax
  8004202491:	48 8b 00             	mov    (%rax),%rax
  8004202494:	48 8b 95 60 ff ff ff 	mov    -0xa0(%rbp),%rdx
  800420249b:	48 8d b5 70 ff ff ff 	lea    -0x90(%rbp),%rsi
  80042024a2:	8b 4d fc             	mov    -0x4(%rbp),%ecx
  80042024a5:	89 cf                	mov    %ecx,%edi
  80042024a7:	ff d0                	callq  *%rax
  80042024a9:	eb 3a                	jmp    80042024e5 <runcmd+0x20f>
	argv[argc] = 0;

	// Lookup and invoke the command
	if (argc == 0)
		return 0;
	for (i = 0; i < NCOMMANDS; i++) {
  80042024ab:	83 45 f8 01          	addl   $0x1,-0x8(%rbp)
  80042024af:	8b 45 f8             	mov    -0x8(%rbp),%eax
  80042024b2:	83 f8 07             	cmp    $0x7,%eax
  80042024b5:	0f 86 72 ff ff ff    	jbe    800420242d <runcmd+0x157>
		if (strcmp(argv[0], commands[i].name) == 0)
			return commands[i].func(argc, argv, tf);
	}
	cprintf("Unknown command '%s'\n", argv[0]);
  80042024bb:	48 8b 85 70 ff ff ff 	mov    -0x90(%rbp),%rax
  80042024c2:	48 89 c6             	mov    %rax,%rsi
  80042024c5:	48 bf d6 77 21 04 80 	movabs $0x80042177d6,%rdi
  80042024cc:	00 00 00 
  80042024cf:	b8 00 00 00 00       	mov    $0x0,%eax
  80042024d4:	48 ba 7f 97 20 04 80 	movabs $0x800420977f,%rdx
  80042024db:	00 00 00 
  80042024de:	ff d2                	callq  *%rdx
	return 0;
  80042024e0:	b8 00 00 00 00       	mov    $0x0,%eax
}
  80042024e5:	c9                   	leaveq 
  80042024e6:	c3                   	retq   

00000080042024e7 <monitor>:

void
monitor(struct Trapframe *tf)
{
  80042024e7:	55                   	push   %rbp
  80042024e8:	48 89 e5             	mov    %rsp,%rbp
  80042024eb:	48 83 ec 20          	sub    $0x20,%rsp
  80042024ef:	48 89 7d e8          	mov    %rdi,-0x18(%rbp)
	char *buf;

	cprintf("Welcome to the JOS kernel monitor!\n");
  80042024f3:	48 bf f0 77 21 04 80 	movabs $0x80042177f0,%rdi
  80042024fa:	00 00 00 
  80042024fd:	b8 00 00 00 00       	mov    $0x0,%eax
  8004202502:	48 ba 7f 97 20 04 80 	movabs $0x800420977f,%rdx
  8004202509:	00 00 00 
  800420250c:	ff d2                	callq  *%rdx
	cprintf("Type 'help' for a list of commands.\n");
  800420250e:	48 bf 18 78 21 04 80 	movabs $0x8004217818,%rdi
  8004202515:	00 00 00 
  8004202518:	b8 00 00 00 00       	mov    $0x0,%eax
  800420251d:	48 ba 7f 97 20 04 80 	movabs $0x800420977f,%rdx
  8004202524:	00 00 00 
  8004202527:	ff d2                	callq  *%rdx


	if (tf != NULL)
  8004202529:	48 83 7d e8 00       	cmpq   $0x0,-0x18(%rbp)
  800420252e:	74 13                	je     8004202543 <monitor+0x5c>
		print_trapframe(tf);
  8004202530:	48 8b 45 e8          	mov    -0x18(%rbp),%rax
  8004202534:	48 89 c7             	mov    %rax,%rdi
  8004202537:	48 b8 41 b2 20 04 80 	movabs $0x800420b241,%rax
  800420253e:	00 00 00 
  8004202541:	ff d0                	callq  *%rax

	cprintf("%C%s\n", BLUE, "BLUE");
  8004202543:	48 ba 3d 78 21 04 80 	movabs $0x800421783d,%rdx
  800420254a:	00 00 00 
  800420254d:	be 01 00 00 00       	mov    $0x1,%esi
  8004202552:	48 bf 42 78 21 04 80 	movabs $0x8004217842,%rdi
  8004202559:	00 00 00 
  800420255c:	b8 00 00 00 00       	mov    $0x0,%eax
  8004202561:	48 b9 7f 97 20 04 80 	movabs $0x800420977f,%rcx
  8004202568:	00 00 00 
  800420256b:	ff d1                	callq  *%rcx
	cprintf("%C%s\n", GREEN, "GREEN");
  800420256d:	48 ba 48 78 21 04 80 	movabs $0x8004217848,%rdx
  8004202574:	00 00 00 
  8004202577:	be 02 00 00 00       	mov    $0x2,%esi
  800420257c:	48 bf 42 78 21 04 80 	movabs $0x8004217842,%rdi
  8004202583:	00 00 00 
  8004202586:	b8 00 00 00 00       	mov    $0x0,%eax
  800420258b:	48 b9 7f 97 20 04 80 	movabs $0x800420977f,%rcx
  8004202592:	00 00 00 
  8004202595:	ff d1                	callq  *%rcx
	cprintf("%C%s\n", YELLOW, "YELLOW");
  8004202597:	48 ba 4e 78 21 04 80 	movabs $0x800421784e,%rdx
  800420259e:	00 00 00 
  80042025a1:	be 0e 00 00 00       	mov    $0xe,%esi
  80042025a6:	48 bf 42 78 21 04 80 	movabs $0x8004217842,%rdi
  80042025ad:	00 00 00 
  80042025b0:	b8 00 00 00 00       	mov    $0x0,%eax
  80042025b5:	48 b9 7f 97 20 04 80 	movabs $0x800420977f,%rcx
  80042025bc:	00 00 00 
  80042025bf:	ff d1                	callq  *%rcx
	cprintf("%C%s\n", RED, "RED");
  80042025c1:	48 ba 55 78 21 04 80 	movabs $0x8004217855,%rdx
  80042025c8:	00 00 00 
  80042025cb:	be 04 00 00 00       	mov    $0x4,%esi
  80042025d0:	48 bf 42 78 21 04 80 	movabs $0x8004217842,%rdi
  80042025d7:	00 00 00 
  80042025da:	b8 00 00 00 00       	mov    $0x0,%eax
  80042025df:	48 b9 7f 97 20 04 80 	movabs $0x800420977f,%rcx
  80042025e6:	00 00 00 
  80042025e9:	ff d1                	callq  *%rcx
	cprintf("%C%s\n", BWHITE, "BRIGHT WHITE");
  80042025eb:	48 ba 59 78 21 04 80 	movabs $0x8004217859,%rdx
  80042025f2:	00 00 00 
  80042025f5:	be 0f 00 00 00       	mov    $0xf,%esi
  80042025fa:	48 bf 42 78 21 04 80 	movabs $0x8004217842,%rdi
  8004202601:	00 00 00 
  8004202604:	b8 00 00 00 00       	mov    $0x0,%eax
  8004202609:	48 b9 7f 97 20 04 80 	movabs $0x800420977f,%rcx
  8004202610:	00 00 00 
  8004202613:	ff d1                	callq  *%rcx
	cprintf("upages %x  kstacktop %x  kernbase %x\n",UPAGES,KSTACKTOP,KERNBASE);
  8004202615:	48 b9 00 00 00 04 80 	movabs $0x8004000000,%rcx
  800420261c:	00 00 00 
  800420261f:	48 ba 00 00 00 04 80 	movabs $0x8004000000,%rdx
  8004202626:	00 00 00 
  8004202629:	48 be 00 00 a0 00 80 	movabs $0x8000a00000,%rsi
  8004202630:	00 00 00 
  8004202633:	48 bf 68 78 21 04 80 	movabs $0x8004217868,%rdi
  800420263a:	00 00 00 
  800420263d:	b8 00 00 00 00       	mov    $0x0,%eax
  8004202642:	49 b8 7f 97 20 04 80 	movabs $0x800420977f,%r8
  8004202649:	00 00 00 
  800420264c:	41 ff d0             	callq  *%r8
	
	if (tf != NULL)
  800420264f:	48 83 7d e8 00       	cmpq   $0x0,-0x18(%rbp)
  8004202654:	74 13                	je     8004202669 <monitor+0x182>
		print_trapframe(tf);
  8004202656:	48 8b 45 e8          	mov    -0x18(%rbp),%rax
  800420265a:	48 89 c7             	mov    %rax,%rdi
  800420265d:	48 b8 41 b2 20 04 80 	movabs $0x800420b241,%rax
  8004202664:	00 00 00 
  8004202667:	ff d0                	callq  *%rax
	

	while (1) {
		buf = readline("K> ");
  8004202669:	48 bf 8e 78 21 04 80 	movabs $0x800421788e,%rdi
  8004202670:	00 00 00 
  8004202673:	48 b8 f6 e9 20 04 80 	movabs $0x800420e9f6,%rax
  800420267a:	00 00 00 
  800420267d:	ff d0                	callq  *%rax
  800420267f:	48 89 45 f8          	mov    %rax,-0x8(%rbp)
		if (buf != NULL)
  8004202683:	48 83 7d f8 00       	cmpq   $0x0,-0x8(%rbp)
  8004202688:	74 20                	je     80042026aa <monitor+0x1c3>
			if (runcmd(buf, tf) < 0)
  800420268a:	48 8b 55 e8          	mov    -0x18(%rbp),%rdx
  800420268e:	48 8b 45 f8          	mov    -0x8(%rbp),%rax
  8004202692:	48 89 d6             	mov    %rdx,%rsi
  8004202695:	48 89 c7             	mov    %rax,%rdi
  8004202698:	48 b8 d6 22 20 04 80 	movabs $0x80042022d6,%rax
  800420269f:	00 00 00 
  80042026a2:	ff d0                	callq  *%rax
  80042026a4:	85 c0                	test   %eax,%eax
  80042026a6:	79 02                	jns    80042026aa <monitor+0x1c3>
				break;
  80042026a8:	eb 02                	jmp    80042026ac <monitor+0x1c5>
		}
  80042026aa:	eb bd                	jmp    8004202669 <monitor+0x182>
	}
  80042026ac:	c9                   	leaveq 
  80042026ad:	c3                   	retq   

00000080042026ae <page2ppn>:
int	user_mem_check(struct Env *env, const void *va, size_t len, int perm);
void	user_mem_assert(struct Env *env, const void *va, size_t len, int perm);

static inline ppn_t
page2ppn(struct PageInfo *pp)
{
  80042026ae:	55                   	push   %rbp
  80042026af:	48 89 e5             	mov    %rsp,%rbp
  80042026b2:	48 83 ec 08          	sub    $0x8,%rsp
  80042026b6:	48 89 7d f8          	mov    %rdi,-0x8(%rbp)
	return pp - pages;
  80042026ba:	48 8b 55 f8          	mov    -0x8(%rbp),%rdx
  80042026be:	48 b8 80 57 37 04 80 	movabs $0x8004375780,%rax
  80042026c5:	00 00 00 
  80042026c8:	48 8b 00             	mov    (%rax),%rax
  80042026cb:	48 29 c2             	sub    %rax,%rdx
  80042026ce:	48 89 d0             	mov    %rdx,%rax
  80042026d1:	48 c1 f8 04          	sar    $0x4,%rax
}
  80042026d5:	c9                   	leaveq 
  80042026d6:	c3                   	retq   

00000080042026d7 <page2pa>:

static inline physaddr_t
page2pa(struct PageInfo *pp)
{
  80042026d7:	55                   	push   %rbp
  80042026d8:	48 89 e5             	mov    %rsp,%rbp
  80042026db:	48 83 ec 08          	sub    $0x8,%rsp
  80042026df:	48 89 7d f8          	mov    %rdi,-0x8(%rbp)
	return page2ppn(pp) << PGSHIFT;
  80042026e3:	48 8b 45 f8          	mov    -0x8(%rbp),%rax
  80042026e7:	48 89 c7             	mov    %rax,%rdi
  80042026ea:	48 b8 ae 26 20 04 80 	movabs $0x80042026ae,%rax
  80042026f1:	00 00 00 
  80042026f4:	ff d0                	callq  *%rax
  80042026f6:	48 c1 e0 0c          	shl    $0xc,%rax
}
  80042026fa:	c9                   	leaveq 
  80042026fb:	c3                   	retq   

00000080042026fc <pa2page>:

static inline struct PageInfo*
pa2page(physaddr_t pa)
{
  80042026fc:	55                   	push   %rbp
  80042026fd:	48 89 e5             	mov    %rsp,%rbp
  8004202700:	48 83 ec 10          	sub    $0x10,%rsp
  8004202704:	48 89 7d f8          	mov    %rdi,-0x8(%rbp)
	if (PPN(pa) >= npages)
  8004202708:	48 8b 45 f8          	mov    -0x8(%rbp),%rax
  800420270c:	48 c1 e8 0c          	shr    $0xc,%rax
  8004202710:	48 89 c2             	mov    %rax,%rdx
  8004202713:	48 b8 78 57 37 04 80 	movabs $0x8004375778,%rax
  800420271a:	00 00 00 
  800420271d:	48 8b 00             	mov    (%rax),%rax
  8004202720:	48 39 c2             	cmp    %rax,%rdx
  8004202723:	72 2a                	jb     800420274f <pa2page+0x53>
		panic("pa2page called with invalid pa");
  8004202725:	48 ba 98 78 21 04 80 	movabs $0x8004217898,%rdx
  800420272c:	00 00 00 
  800420272f:	be 54 00 00 00       	mov    $0x54,%esi
  8004202734:	48 bf b7 78 21 04 80 	movabs $0x80042178b7,%rdi
  800420273b:	00 00 00 
  800420273e:	b8 00 00 00 00       	mov    $0x0,%eax
  8004202743:	48 b9 08 06 20 04 80 	movabs $0x8004200608,%rcx
  800420274a:	00 00 00 
  800420274d:	ff d1                	callq  *%rcx
	return &pages[PPN(pa)];
  800420274f:	48 b8 80 57 37 04 80 	movabs $0x8004375780,%rax
  8004202756:	00 00 00 
  8004202759:	48 8b 00             	mov    (%rax),%rax
  800420275c:	48 8b 55 f8          	mov    -0x8(%rbp),%rdx
  8004202760:	48 c1 ea 0c          	shr    $0xc,%rdx
  8004202764:	48 c1 e2 04          	shl    $0x4,%rdx
  8004202768:	48 01 d0             	add    %rdx,%rax
}
  800420276b:	c9                   	leaveq 
  800420276c:	c3                   	retq   

000000800420276d <page2kva>:

static inline void*
page2kva(struct PageInfo *pp)
{
  800420276d:	55                   	push   %rbp
  800420276e:	48 89 e5             	mov    %rsp,%rbp
  8004202771:	48 83 ec 20          	sub    $0x20,%rsp
  8004202775:	48 89 7d e8          	mov    %rdi,-0x18(%rbp)
	return KADDR(page2pa(pp));
  8004202779:	48 8b 45 e8          	mov    -0x18(%rbp),%rax
  800420277d:	48 89 c7             	mov    %rax,%rdi
  8004202780:	48 b8 d7 26 20 04 80 	movabs $0x80042026d7,%rax
  8004202787:	00 00 00 
  800420278a:	ff d0                	callq  *%rax
  800420278c:	48 89 45 f8          	mov    %rax,-0x8(%rbp)
  8004202790:	48 8b 45 f8          	mov    -0x8(%rbp),%rax
  8004202794:	48 c1 e8 0c          	shr    $0xc,%rax
  8004202798:	89 45 f4             	mov    %eax,-0xc(%rbp)
  800420279b:	8b 55 f4             	mov    -0xc(%rbp),%edx
  800420279e:	48 b8 78 57 37 04 80 	movabs $0x8004375778,%rax
  80042027a5:	00 00 00 
  80042027a8:	48 8b 00             	mov    (%rax),%rax
  80042027ab:	48 39 c2             	cmp    %rax,%rdx
  80042027ae:	72 32                	jb     80042027e2 <page2kva+0x75>
  80042027b0:	48 8b 45 f8          	mov    -0x8(%rbp),%rax
  80042027b4:	48 89 c1             	mov    %rax,%rcx
  80042027b7:	48 ba c8 78 21 04 80 	movabs $0x80042178c8,%rdx
  80042027be:	00 00 00 
  80042027c1:	be 5b 00 00 00       	mov    $0x5b,%esi
  80042027c6:	48 bf b7 78 21 04 80 	movabs $0x80042178b7,%rdi
  80042027cd:	00 00 00 
  80042027d0:	b8 00 00 00 00       	mov    $0x0,%eax
  80042027d5:	49 b8 08 06 20 04 80 	movabs $0x8004200608,%r8
  80042027dc:	00 00 00 
  80042027df:	41 ff d0             	callq  *%r8
  80042027e2:	48 ba 00 00 00 04 80 	movabs $0x8004000000,%rdx
  80042027e9:	00 00 00 
  80042027ec:	48 8b 45 f8          	mov    -0x8(%rbp),%rax
  80042027f0:	48 01 d0             	add    %rdx,%rax
}
  80042027f3:	c9                   	leaveq 
  80042027f4:	c3                   	retq   

00000080042027f5 <restrictive_type>:
   uint32_t length_low;
   uint32_t length_high;
   uint32_t type;
 } memory_map_t;

static __inline uint32_t restrictive_type(uint32_t t1, uint32_t t2) {
  80042027f5:	55                   	push   %rbp
  80042027f6:	48 89 e5             	mov    %rsp,%rbp
  80042027f9:	48 83 ec 08          	sub    $0x8,%rsp
  80042027fd:	89 7d fc             	mov    %edi,-0x4(%rbp)
  8004202800:	89 75 f8             	mov    %esi,-0x8(%rbp)
  if(t1==MB_TYPE_BAD || t2==MB_TYPE_BAD)
  8004202803:	83 7d fc 05          	cmpl   $0x5,-0x4(%rbp)
  8004202807:	74 06                	je     800420280f <restrictive_type+0x1a>
  8004202809:	83 7d f8 05          	cmpl   $0x5,-0x8(%rbp)
  800420280d:	75 07                	jne    8004202816 <restrictive_type+0x21>
    return MB_TYPE_BAD;
  800420280f:	b8 05 00 00 00       	mov    $0x5,%eax
  8004202814:	eb 3e                	jmp    8004202854 <restrictive_type+0x5f>
  else if(t1==MB_TYPE_ACPI_NVS || t2==MB_TYPE_ACPI_NVS)
  8004202816:	83 7d fc 04          	cmpl   $0x4,-0x4(%rbp)
  800420281a:	74 06                	je     8004202822 <restrictive_type+0x2d>
  800420281c:	83 7d f8 04          	cmpl   $0x4,-0x8(%rbp)
  8004202820:	75 07                	jne    8004202829 <restrictive_type+0x34>
    return MB_TYPE_ACPI_NVS;
  8004202822:	b8 04 00 00 00       	mov    $0x4,%eax
  8004202827:	eb 2b                	jmp    8004202854 <restrictive_type+0x5f>
  else if(t1==MB_TYPE_RESERVED || t2==MB_TYPE_RESERVED)
  8004202829:	83 7d fc 02          	cmpl   $0x2,-0x4(%rbp)
  800420282d:	74 06                	je     8004202835 <restrictive_type+0x40>
  800420282f:	83 7d f8 02          	cmpl   $0x2,-0x8(%rbp)
  8004202833:	75 07                	jne    800420283c <restrictive_type+0x47>
    return MB_TYPE_RESERVED;
  8004202835:	b8 02 00 00 00       	mov    $0x2,%eax
  800420283a:	eb 18                	jmp    8004202854 <restrictive_type+0x5f>
  else if(t1==MB_TYPE_ACPI_RECLM || t2==MB_TYPE_ACPI_RECLM)
  800420283c:	83 7d fc 03          	cmpl   $0x3,-0x4(%rbp)
  8004202840:	74 06                	je     8004202848 <restrictive_type+0x53>
  8004202842:	83 7d f8 03          	cmpl   $0x3,-0x8(%rbp)
  8004202846:	75 07                	jne    800420284f <restrictive_type+0x5a>
    return MB_TYPE_ACPI_RECLM;
  8004202848:	b8 03 00 00 00       	mov    $0x3,%eax
  800420284d:	eb 05                	jmp    8004202854 <restrictive_type+0x5f>

  return MB_TYPE_USABLE;
  800420284f:	b8 01 00 00 00       	mov    $0x1,%eax
}
  8004202854:	c9                   	leaveq 
  8004202855:	c3                   	retq   

0000008004202856 <nvram_read>:
// Detect machine's physical memory setup.
// --------------------------------------------------------------

static int
nvram_read(int r)
{
  8004202856:	55                   	push   %rbp
  8004202857:	48 89 e5             	mov    %rsp,%rbp
  800420285a:	53                   	push   %rbx
  800420285b:	48 83 ec 18          	sub    $0x18,%rsp
  800420285f:	89 7d ec             	mov    %edi,-0x14(%rbp)
	return mc146818_read(r) | (mc146818_read(r + 1) << 8);
  8004202862:	8b 45 ec             	mov    -0x14(%rbp),%eax
  8004202865:	89 c7                	mov    %eax,%edi
  8004202867:	48 b8 03 94 20 04 80 	movabs $0x8004209403,%rax
  800420286e:	00 00 00 
  8004202871:	ff d0                	callq  *%rax
  8004202873:	89 c3                	mov    %eax,%ebx
  8004202875:	8b 45 ec             	mov    -0x14(%rbp),%eax
  8004202878:	83 c0 01             	add    $0x1,%eax
  800420287b:	89 c7                	mov    %eax,%edi
  800420287d:	48 b8 03 94 20 04 80 	movabs $0x8004209403,%rax
  8004202884:	00 00 00 
  8004202887:	ff d0                	callq  *%rax
  8004202889:	c1 e0 08             	shl    $0x8,%eax
  800420288c:	09 d8                	or     %ebx,%eax
}
  800420288e:	48 83 c4 18          	add    $0x18,%rsp
  8004202892:	5b                   	pop    %rbx
  8004202893:	5d                   	pop    %rbp
  8004202894:	c3                   	retq   

0000008004202895 <multiboot_read>:

static void
multiboot_read(multiboot_info_t* mbinfo, size_t* basemem, size_t* extmem) {
  8004202895:	55                   	push   %rbp
  8004202896:	48 89 e5             	mov    %rsp,%rbp
  8004202899:	41 54                	push   %r12
  800420289b:	53                   	push   %rbx
  800420289c:	48 81 ec b0 00 00 00 	sub    $0xb0,%rsp
  80042028a3:	48 89 bd 58 ff ff ff 	mov    %rdi,-0xa8(%rbp)
  80042028aa:	48 89 b5 50 ff ff ff 	mov    %rsi,-0xb0(%rbp)
  80042028b1:	48 89 95 48 ff ff ff 	mov    %rdx,-0xb8(%rbp)
  80042028b8:	48 89 e0             	mov    %rsp,%rax
  80042028bb:	49 89 c4             	mov    %rax,%r12
	int i;

	memory_map_t* mmap_base = (memory_map_t*)(uintptr_t)mbinfo->mmap_addr;
  80042028be:	48 8b 85 58 ff ff ff 	mov    -0xa8(%rbp),%rax
  80042028c5:	8b 40 30             	mov    0x30(%rax),%eax
  80042028c8:	89 c0                	mov    %eax,%eax
  80042028ca:	48 89 45 d8          	mov    %rax,-0x28(%rbp)

	memory_map_t* mmap_list[mbinfo->mmap_length/ (sizeof(memory_map_t))];
  80042028ce:	48 8b 85 58 ff ff ff 	mov    -0xa8(%rbp),%rax
  80042028d5:	8b 40 2c             	mov    0x2c(%rax),%eax
  80042028d8:	ba ab aa aa aa       	mov    $0xaaaaaaab,%edx
  80042028dd:	f7 e2                	mul    %edx
  80042028df:	89 d0                	mov    %edx,%eax
  80042028e1:	c1 e8 04             	shr    $0x4,%eax
  80042028e4:	89 c0                	mov    %eax,%eax
  80042028e6:	48 89 c2             	mov    %rax,%rdx
  80042028e9:	48 83 ea 01          	sub    $0x1,%rdx
  80042028ed:	48 89 55 d0          	mov    %rdx,-0x30(%rbp)
  80042028f1:	49 89 c0             	mov    %rax,%r8
  80042028f4:	41 b9 00 00 00 00    	mov    $0x0,%r9d
  80042028fa:	48 89 c1             	mov    %rax,%rcx
  80042028fd:	bb 00 00 00 00       	mov    $0x0,%ebx
  8004202902:	48 c1 e0 03          	shl    $0x3,%rax
  8004202906:	48 8d 50 07          	lea    0x7(%rax),%rdx
  800420290a:	b8 10 00 00 00       	mov    $0x10,%eax
  800420290f:	48 83 e8 01          	sub    $0x1,%rax
  8004202913:	48 01 d0             	add    %rdx,%rax
  8004202916:	bb 10 00 00 00       	mov    $0x10,%ebx
  800420291b:	ba 00 00 00 00       	mov    $0x0,%edx
  8004202920:	48 f7 f3             	div    %rbx
  8004202923:	48 6b c0 10          	imul   $0x10,%rax,%rax
  8004202927:	48 29 c4             	sub    %rax,%rsp
  800420292a:	48 89 e0             	mov    %rsp,%rax
  800420292d:	48 83 c0 07          	add    $0x7,%rax
  8004202931:	48 c1 e8 03          	shr    $0x3,%rax
  8004202935:	48 c1 e0 03          	shl    $0x3,%rax
  8004202939:	48 89 45 c8          	mov    %rax,-0x38(%rbp)

	cprintf("\ne820 MEMORY MAP\n");
  800420293d:	48 bf eb 78 21 04 80 	movabs $0x80042178eb,%rdi
  8004202944:	00 00 00 
  8004202947:	b8 00 00 00 00       	mov    $0x0,%eax
  800420294c:	48 ba 7f 97 20 04 80 	movabs $0x800420977f,%rdx
  8004202953:	00 00 00 
  8004202956:	ff d2                	callq  *%rdx
	for(i = 0; i < (mbinfo->mmap_length / (sizeof(memory_map_t))); i++) {
  8004202958:	c7 45 ec 00 00 00 00 	movl   $0x0,-0x14(%rbp)
  800420295f:	e9 6c 01 00 00       	jmpq   8004202ad0 <multiboot_read+0x23b>
		memory_map_t* mmap = &mmap_base[i];
  8004202964:	8b 45 ec             	mov    -0x14(%rbp),%eax
  8004202967:	48 63 d0             	movslq %eax,%rdx
  800420296a:	48 89 d0             	mov    %rdx,%rax
  800420296d:	48 01 c0             	add    %rax,%rax
  8004202970:	48 01 d0             	add    %rdx,%rax
  8004202973:	48 c1 e0 03          	shl    $0x3,%rax
  8004202977:	48 89 c2             	mov    %rax,%rdx
  800420297a:	48 8b 45 d8          	mov    -0x28(%rbp),%rax
  800420297e:	48 01 d0             	add    %rdx,%rax
  8004202981:	48 89 45 c0          	mov    %rax,-0x40(%rbp)

		uint64_t addr = APPEND_HILO(mmap->base_addr_high, mmap->base_addr_low);
  8004202985:	48 8b 45 c0          	mov    -0x40(%rbp),%rax
  8004202989:	8b 40 08             	mov    0x8(%rax),%eax
  800420298c:	89 c0                	mov    %eax,%eax
  800420298e:	48 c1 e0 20          	shl    $0x20,%rax
  8004202992:	48 89 c2             	mov    %rax,%rdx
  8004202995:	48 8b 45 c0          	mov    -0x40(%rbp),%rax
  8004202999:	8b 40 04             	mov    0x4(%rax),%eax
  800420299c:	89 c0                	mov    %eax,%eax
  800420299e:	48 01 d0             	add    %rdx,%rax
  80042029a1:	48 89 45 b8          	mov    %rax,-0x48(%rbp)
		uint64_t len = APPEND_HILO(mmap->length_high, mmap->length_low);
  80042029a5:	48 8b 45 c0          	mov    -0x40(%rbp),%rax
  80042029a9:	8b 40 10             	mov    0x10(%rax),%eax
  80042029ac:	89 c0                	mov    %eax,%eax
  80042029ae:	48 c1 e0 20          	shl    $0x20,%rax
  80042029b2:	48 89 c2             	mov    %rax,%rdx
  80042029b5:	48 8b 45 c0          	mov    -0x40(%rbp),%rax
  80042029b9:	8b 40 0c             	mov    0xc(%rax),%eax
  80042029bc:	89 c0                	mov    %eax,%eax
  80042029be:	48 01 d0             	add    %rdx,%rax
  80042029c1:	48 89 45 b0          	mov    %rax,-0x50(%rbp)

		cprintf("size: %d, address: 0x%016x, length: 0x%016x, type: %x\n", mmap->size, 
  80042029c5:	48 8b 45 c0          	mov    -0x40(%rbp),%rax
  80042029c9:	8b 70 14             	mov    0x14(%rax),%esi
  80042029cc:	48 8b 45 c0          	mov    -0x40(%rbp),%rax
  80042029d0:	8b 00                	mov    (%rax),%eax
  80042029d2:	48 8b 4d b0          	mov    -0x50(%rbp),%rcx
  80042029d6:	48 8b 55 b8          	mov    -0x48(%rbp),%rdx
  80042029da:	41 89 f0             	mov    %esi,%r8d
  80042029dd:	89 c6                	mov    %eax,%esi
  80042029df:	48 bf 00 79 21 04 80 	movabs $0x8004217900,%rdi
  80042029e6:	00 00 00 
  80042029e9:	b8 00 00 00 00       	mov    $0x0,%eax
  80042029ee:	49 b9 7f 97 20 04 80 	movabs $0x800420977f,%r9
  80042029f5:	00 00 00 
  80042029f8:	41 ff d1             	callq  *%r9
			addr, len, mmap->type);

		if(mmap->type > 5 || mmap->type < 1)
  80042029fb:	48 8b 45 c0          	mov    -0x40(%rbp),%rax
  80042029ff:	8b 40 14             	mov    0x14(%rax),%eax
  8004202a02:	83 f8 05             	cmp    $0x5,%eax
  8004202a05:	77 0b                	ja     8004202a12 <multiboot_read+0x17d>
  8004202a07:	48 8b 45 c0          	mov    -0x40(%rbp),%rax
  8004202a0b:	8b 40 14             	mov    0x14(%rax),%eax
  8004202a0e:	85 c0                	test   %eax,%eax
  8004202a10:	75 0b                	jne    8004202a1d <multiboot_read+0x188>
			mmap->type = MB_TYPE_RESERVED;
  8004202a12:	48 8b 45 c0          	mov    -0x40(%rbp),%rax
  8004202a16:	c7 40 14 02 00 00 00 	movl   $0x2,0x14(%rax)

		//Insert into the sorted list
		int j = 0;
  8004202a1d:	c7 45 e8 00 00 00 00 	movl   $0x0,-0x18(%rbp)
		for(;j<i;j++) {
  8004202a24:	e9 85 00 00 00       	jmpq   8004202aae <multiboot_read+0x219>
			memory_map_t* this = mmap_list[j];
  8004202a29:	48 8b 45 c8          	mov    -0x38(%rbp),%rax
  8004202a2d:	8b 55 e8             	mov    -0x18(%rbp),%edx
  8004202a30:	48 63 d2             	movslq %edx,%rdx
  8004202a33:	48 8b 04 d0          	mov    (%rax,%rdx,8),%rax
  8004202a37:	48 89 45 a8          	mov    %rax,-0x58(%rbp)
			uint64_t this_addr = APPEND_HILO(this->base_addr_high, this->base_addr_low);
  8004202a3b:	48 8b 45 a8          	mov    -0x58(%rbp),%rax
  8004202a3f:	8b 40 08             	mov    0x8(%rax),%eax
  8004202a42:	89 c0                	mov    %eax,%eax
  8004202a44:	48 c1 e0 20          	shl    $0x20,%rax
  8004202a48:	48 89 c2             	mov    %rax,%rdx
  8004202a4b:	48 8b 45 a8          	mov    -0x58(%rbp),%rax
  8004202a4f:	8b 40 04             	mov    0x4(%rax),%eax
  8004202a52:	89 c0                	mov    %eax,%eax
  8004202a54:	48 01 d0             	add    %rdx,%rax
  8004202a57:	48 89 45 a0          	mov    %rax,-0x60(%rbp)
			if(this_addr > addr) {
  8004202a5b:	48 8b 45 a0          	mov    -0x60(%rbp),%rax
  8004202a5f:	48 3b 45 b8          	cmp    -0x48(%rbp),%rax
  8004202a63:	76 45                	jbe    8004202aaa <multiboot_read+0x215>
				int last = i+1;
  8004202a65:	8b 45 ec             	mov    -0x14(%rbp),%eax
  8004202a68:	83 c0 01             	add    $0x1,%eax
  8004202a6b:	89 45 e4             	mov    %eax,-0x1c(%rbp)
				while(last != j) {
  8004202a6e:	eb 30                	jmp    8004202aa0 <multiboot_read+0x20b>
					*(mmap_list + last) = *(mmap_list + last - 1);
  8004202a70:	48 8b 45 c8          	mov    -0x38(%rbp),%rax
  8004202a74:	8b 55 e4             	mov    -0x1c(%rbp),%edx
  8004202a77:	48 63 d2             	movslq %edx,%rdx
  8004202a7a:	48 c1 e2 03          	shl    $0x3,%rdx
  8004202a7e:	48 01 c2             	add    %rax,%rdx
  8004202a81:	48 8b 45 c8          	mov    -0x38(%rbp),%rax
  8004202a85:	8b 4d e4             	mov    -0x1c(%rbp),%ecx
  8004202a88:	48 63 c9             	movslq %ecx,%rcx
  8004202a8b:	48 c1 e1 03          	shl    $0x3,%rcx
  8004202a8f:	48 83 e9 08          	sub    $0x8,%rcx
  8004202a93:	48 01 c8             	add    %rcx,%rax
  8004202a96:	48 8b 00             	mov    (%rax),%rax
  8004202a99:	48 89 02             	mov    %rax,(%rdx)
					last--;
  8004202a9c:	83 6d e4 01          	subl   $0x1,-0x1c(%rbp)
		for(;j<i;j++) {
			memory_map_t* this = mmap_list[j];
			uint64_t this_addr = APPEND_HILO(this->base_addr_high, this->base_addr_low);
			if(this_addr > addr) {
				int last = i+1;
				while(last != j) {
  8004202aa0:	8b 45 e4             	mov    -0x1c(%rbp),%eax
  8004202aa3:	3b 45 e8             	cmp    -0x18(%rbp),%eax
  8004202aa6:	75 c8                	jne    8004202a70 <multiboot_read+0x1db>
					*(mmap_list + last) = *(mmap_list + last - 1);
					last--;
				}
				break; 
  8004202aa8:	eb 10                	jmp    8004202aba <multiboot_read+0x225>
		if(mmap->type > 5 || mmap->type < 1)
			mmap->type = MB_TYPE_RESERVED;

		//Insert into the sorted list
		int j = 0;
		for(;j<i;j++) {
  8004202aaa:	83 45 e8 01          	addl   $0x1,-0x18(%rbp)
  8004202aae:	8b 45 e8             	mov    -0x18(%rbp),%eax
  8004202ab1:	3b 45 ec             	cmp    -0x14(%rbp),%eax
  8004202ab4:	0f 8c 6f ff ff ff    	jl     8004202a29 <multiboot_read+0x194>
					last--;
				}
				break; 
			}
		}
		mmap_list[j] = mmap;  
  8004202aba:	48 8b 45 c8          	mov    -0x38(%rbp),%rax
  8004202abe:	8b 55 e8             	mov    -0x18(%rbp),%edx
  8004202ac1:	48 63 d2             	movslq %edx,%rdx
  8004202ac4:	48 8b 4d c0          	mov    -0x40(%rbp),%rcx
  8004202ac8:	48 89 0c d0          	mov    %rcx,(%rax,%rdx,8)
	memory_map_t* mmap_base = (memory_map_t*)(uintptr_t)mbinfo->mmap_addr;

	memory_map_t* mmap_list[mbinfo->mmap_length/ (sizeof(memory_map_t))];

	cprintf("\ne820 MEMORY MAP\n");
	for(i = 0; i < (mbinfo->mmap_length / (sizeof(memory_map_t))); i++) {
  8004202acc:	83 45 ec 01          	addl   $0x1,-0x14(%rbp)
  8004202ad0:	8b 45 ec             	mov    -0x14(%rbp),%eax
  8004202ad3:	48 63 c8             	movslq %eax,%rcx
  8004202ad6:	48 8b 85 58 ff ff ff 	mov    -0xa8(%rbp),%rax
  8004202add:	8b 40 2c             	mov    0x2c(%rax),%eax
  8004202ae0:	ba ab aa aa aa       	mov    $0xaaaaaaab,%edx
  8004202ae5:	f7 e2                	mul    %edx
  8004202ae7:	89 d0                	mov    %edx,%eax
  8004202ae9:	c1 e8 04             	shr    $0x4,%eax
  8004202aec:	89 c0                	mov    %eax,%eax
  8004202aee:	48 39 c1             	cmp    %rax,%rcx
  8004202af1:	0f 82 6d fe ff ff    	jb     8004202964 <multiboot_read+0xcf>
				break; 
			}
		}
		mmap_list[j] = mmap;  
	}
	cprintf("\n");
  8004202af7:	48 bf 37 79 21 04 80 	movabs $0x8004217937,%rdi
  8004202afe:	00 00 00 
  8004202b01:	b8 00 00 00 00       	mov    $0x0,%eax
  8004202b06:	48 ba 7f 97 20 04 80 	movabs $0x800420977f,%rdx
  8004202b0d:	00 00 00 
  8004202b10:	ff d2                	callq  *%rdx

	// Sanitize the list
	for(i=1;i < (mbinfo->mmap_length / (sizeof(memory_map_t))); i++) {
  8004202b12:	c7 45 ec 01 00 00 00 	movl   $0x1,-0x14(%rbp)
  8004202b19:	e9 93 01 00 00       	jmpq   8004202cb1 <multiboot_read+0x41c>
		memory_map_t* prev = mmap_list[i-1];
  8004202b1e:	8b 45 ec             	mov    -0x14(%rbp),%eax
  8004202b21:	8d 50 ff             	lea    -0x1(%rax),%edx
  8004202b24:	48 8b 45 c8          	mov    -0x38(%rbp),%rax
  8004202b28:	48 63 d2             	movslq %edx,%rdx
  8004202b2b:	48 8b 04 d0          	mov    (%rax,%rdx,8),%rax
  8004202b2f:	48 89 45 98          	mov    %rax,-0x68(%rbp)
		memory_map_t* this = mmap_list[i];
  8004202b33:	48 8b 45 c8          	mov    -0x38(%rbp),%rax
  8004202b37:	8b 55 ec             	mov    -0x14(%rbp),%edx
  8004202b3a:	48 63 d2             	movslq %edx,%rdx
  8004202b3d:	48 8b 04 d0          	mov    (%rax,%rdx,8),%rax
  8004202b41:	48 89 45 90          	mov    %rax,-0x70(%rbp)

		uint64_t this_addr = APPEND_HILO(this->base_addr_high, this->base_addr_low);
  8004202b45:	48 8b 45 90          	mov    -0x70(%rbp),%rax
  8004202b49:	8b 40 08             	mov    0x8(%rax),%eax
  8004202b4c:	89 c0                	mov    %eax,%eax
  8004202b4e:	48 c1 e0 20          	shl    $0x20,%rax
  8004202b52:	48 89 c2             	mov    %rax,%rdx
  8004202b55:	48 8b 45 90          	mov    -0x70(%rbp),%rax
  8004202b59:	8b 40 04             	mov    0x4(%rax),%eax
  8004202b5c:	89 c0                	mov    %eax,%eax
  8004202b5e:	48 01 d0             	add    %rdx,%rax
  8004202b61:	48 89 45 88          	mov    %rax,-0x78(%rbp)
		uint64_t prev_addr = APPEND_HILO(prev->base_addr_high, prev->base_addr_low);
  8004202b65:	48 8b 45 98          	mov    -0x68(%rbp),%rax
  8004202b69:	8b 40 08             	mov    0x8(%rax),%eax
  8004202b6c:	89 c0                	mov    %eax,%eax
  8004202b6e:	48 c1 e0 20          	shl    $0x20,%rax
  8004202b72:	48 89 c2             	mov    %rax,%rdx
  8004202b75:	48 8b 45 98          	mov    -0x68(%rbp),%rax
  8004202b79:	8b 40 04             	mov    0x4(%rax),%eax
  8004202b7c:	89 c0                	mov    %eax,%eax
  8004202b7e:	48 01 d0             	add    %rdx,%rax
  8004202b81:	48 89 45 80          	mov    %rax,-0x80(%rbp)
		uint64_t prev_length = APPEND_HILO(prev->length_high, prev->length_low);
  8004202b85:	48 8b 45 98          	mov    -0x68(%rbp),%rax
  8004202b89:	8b 40 10             	mov    0x10(%rax),%eax
  8004202b8c:	89 c0                	mov    %eax,%eax
  8004202b8e:	48 c1 e0 20          	shl    $0x20,%rax
  8004202b92:	48 89 c2             	mov    %rax,%rdx
  8004202b95:	48 8b 45 98          	mov    -0x68(%rbp),%rax
  8004202b99:	8b 40 0c             	mov    0xc(%rax),%eax
  8004202b9c:	89 c0                	mov    %eax,%eax
  8004202b9e:	48 01 d0             	add    %rdx,%rax
  8004202ba1:	48 89 85 78 ff ff ff 	mov    %rax,-0x88(%rbp)
		uint64_t this_length = APPEND_HILO(this->length_high, this->length_low);
  8004202ba8:	48 8b 45 90          	mov    -0x70(%rbp),%rax
  8004202bac:	8b 40 10             	mov    0x10(%rax),%eax
  8004202baf:	89 c0                	mov    %eax,%eax
  8004202bb1:	48 c1 e0 20          	shl    $0x20,%rax
  8004202bb5:	48 89 c2             	mov    %rax,%rdx
  8004202bb8:	48 8b 45 90          	mov    -0x70(%rbp),%rax
  8004202bbc:	8b 40 0c             	mov    0xc(%rax),%eax
  8004202bbf:	89 c0                	mov    %eax,%eax
  8004202bc1:	48 01 d0             	add    %rdx,%rax
  8004202bc4:	48 89 85 70 ff ff ff 	mov    %rax,-0x90(%rbp)

		// Merge adjacent regions with same type
		if(prev_addr + prev_length == this_addr && prev->type == this->type) {
  8004202bcb:	48 8b 85 78 ff ff ff 	mov    -0x88(%rbp),%rax
  8004202bd2:	48 8b 55 80          	mov    -0x80(%rbp),%rdx
  8004202bd6:	48 01 d0             	add    %rdx,%rax
  8004202bd9:	48 3b 45 88          	cmp    -0x78(%rbp),%rax
  8004202bdd:	75 7c                	jne    8004202c5b <multiboot_read+0x3c6>
  8004202bdf:	48 8b 45 98          	mov    -0x68(%rbp),%rax
  8004202be3:	8b 50 14             	mov    0x14(%rax),%edx
  8004202be6:	48 8b 45 90          	mov    -0x70(%rbp),%rax
  8004202bea:	8b 40 14             	mov    0x14(%rax),%eax
  8004202bed:	39 c2                	cmp    %eax,%edx
  8004202bef:	75 6a                	jne    8004202c5b <multiboot_read+0x3c6>
			this->length_low = (uint32_t)prev_length + this_length;
  8004202bf1:	48 8b 85 78 ff ff ff 	mov    -0x88(%rbp),%rax
  8004202bf8:	89 c2                	mov    %eax,%edx
  8004202bfa:	48 8b 85 70 ff ff ff 	mov    -0x90(%rbp),%rax
  8004202c01:	01 c2                	add    %eax,%edx
  8004202c03:	48 8b 45 90          	mov    -0x70(%rbp),%rax
  8004202c07:	89 50 0c             	mov    %edx,0xc(%rax)
			this->length_high = (uint32_t)((prev_length + this_length)>>32);
  8004202c0a:	48 8b 85 70 ff ff ff 	mov    -0x90(%rbp),%rax
  8004202c11:	48 8b 95 78 ff ff ff 	mov    -0x88(%rbp),%rdx
  8004202c18:	48 01 d0             	add    %rdx,%rax
  8004202c1b:	48 c1 e8 20          	shr    $0x20,%rax
  8004202c1f:	89 c2                	mov    %eax,%edx
  8004202c21:	48 8b 45 90          	mov    -0x70(%rbp),%rax
  8004202c25:	89 50 10             	mov    %edx,0x10(%rax)
			this->base_addr_low = prev->base_addr_low;
  8004202c28:	48 8b 45 98          	mov    -0x68(%rbp),%rax
  8004202c2c:	8b 50 04             	mov    0x4(%rax),%edx
  8004202c2f:	48 8b 45 90          	mov    -0x70(%rbp),%rax
  8004202c33:	89 50 04             	mov    %edx,0x4(%rax)
			this->base_addr_high = prev->base_addr_high;
  8004202c36:	48 8b 45 98          	mov    -0x68(%rbp),%rax
  8004202c3a:	8b 50 08             	mov    0x8(%rax),%edx
  8004202c3d:	48 8b 45 90          	mov    -0x70(%rbp),%rax
  8004202c41:	89 50 08             	mov    %edx,0x8(%rax)
			mmap_list[i-1] = NULL;
  8004202c44:	8b 45 ec             	mov    -0x14(%rbp),%eax
  8004202c47:	8d 50 ff             	lea    -0x1(%rax),%edx
  8004202c4a:	48 8b 45 c8          	mov    -0x38(%rbp),%rax
  8004202c4e:	48 63 d2             	movslq %edx,%rdx
  8004202c51:	48 c7 04 d0 00 00 00 	movq   $0x0,(%rax,%rdx,8)
  8004202c58:	00 
  8004202c59:	eb 52                	jmp    8004202cad <multiboot_read+0x418>
		} else if(prev_addr + prev_length > this_addr) {
  8004202c5b:	48 8b 85 78 ff ff ff 	mov    -0x88(%rbp),%rax
  8004202c62:	48 8b 55 80          	mov    -0x80(%rbp),%rdx
  8004202c66:	48 01 d0             	add    %rdx,%rax
  8004202c69:	48 3b 45 88          	cmp    -0x78(%rbp),%rax
  8004202c6d:	76 3e                	jbe    8004202cad <multiboot_read+0x418>
			//Overlapping regions
			uint32_t type = restrictive_type(prev->type, this->type);
  8004202c6f:	48 8b 45 90          	mov    -0x70(%rbp),%rax
  8004202c73:	8b 50 14             	mov    0x14(%rax),%edx
  8004202c76:	48 8b 45 98          	mov    -0x68(%rbp),%rax
  8004202c7a:	8b 40 14             	mov    0x14(%rax),%eax
  8004202c7d:	89 d6                	mov    %edx,%esi
  8004202c7f:	89 c7                	mov    %eax,%edi
  8004202c81:	48 b8 f5 27 20 04 80 	movabs $0x80042027f5,%rax
  8004202c88:	00 00 00 
  8004202c8b:	ff d0                	callq  *%rax
  8004202c8d:	89 85 6c ff ff ff    	mov    %eax,-0x94(%rbp)
			prev->type = type;
  8004202c93:	48 8b 45 98          	mov    -0x68(%rbp),%rax
  8004202c97:	8b 95 6c ff ff ff    	mov    -0x94(%rbp),%edx
  8004202c9d:	89 50 14             	mov    %edx,0x14(%rax)
			this->type = type;
  8004202ca0:	48 8b 45 90          	mov    -0x70(%rbp),%rax
  8004202ca4:	8b 95 6c ff ff ff    	mov    -0x94(%rbp),%edx
  8004202caa:	89 50 14             	mov    %edx,0x14(%rax)
		mmap_list[j] = mmap;  
	}
	cprintf("\n");

	// Sanitize the list
	for(i=1;i < (mbinfo->mmap_length / (sizeof(memory_map_t))); i++) {
  8004202cad:	83 45 ec 01          	addl   $0x1,-0x14(%rbp)
  8004202cb1:	8b 45 ec             	mov    -0x14(%rbp),%eax
  8004202cb4:	48 63 c8             	movslq %eax,%rcx
  8004202cb7:	48 8b 85 58 ff ff ff 	mov    -0xa8(%rbp),%rax
  8004202cbe:	8b 40 2c             	mov    0x2c(%rax),%eax
  8004202cc1:	ba ab aa aa aa       	mov    $0xaaaaaaab,%edx
  8004202cc6:	f7 e2                	mul    %edx
  8004202cc8:	89 d0                	mov    %edx,%eax
  8004202cca:	c1 e8 04             	shr    $0x4,%eax
  8004202ccd:	89 c0                	mov    %eax,%eax
  8004202ccf:	48 39 c1             	cmp    %rax,%rcx
  8004202cd2:	0f 82 46 fe ff ff    	jb     8004202b1e <multiboot_read+0x289>
			prev->type = type;
			this->type = type;
		}
	}

	for(i=0;i < (mbinfo->mmap_length / (sizeof(memory_map_t))); i++) {
  8004202cd8:	c7 45 ec 00 00 00 00 	movl   $0x0,-0x14(%rbp)
  8004202cdf:	e9 dc 00 00 00       	jmpq   8004202dc0 <multiboot_read+0x52b>
		memory_map_t* mmap = mmap_list[i];
  8004202ce4:	48 8b 45 c8          	mov    -0x38(%rbp),%rax
  8004202ce8:	8b 55 ec             	mov    -0x14(%rbp),%edx
  8004202ceb:	48 63 d2             	movslq %edx,%rdx
  8004202cee:	48 8b 04 d0          	mov    (%rax,%rdx,8),%rax
  8004202cf2:	48 89 85 60 ff ff ff 	mov    %rax,-0xa0(%rbp)
		if(mmap) {
  8004202cf9:	48 83 bd 60 ff ff ff 	cmpq   $0x0,-0xa0(%rbp)
  8004202d00:	00 
  8004202d01:	0f 84 b5 00 00 00    	je     8004202dbc <multiboot_read+0x527>
			if(mmap->type == MB_TYPE_USABLE || mmap->type == MB_TYPE_ACPI_RECLM) {
  8004202d07:	48 8b 85 60 ff ff ff 	mov    -0xa0(%rbp),%rax
  8004202d0e:	8b 40 14             	mov    0x14(%rax),%eax
  8004202d11:	83 f8 01             	cmp    $0x1,%eax
  8004202d14:	74 13                	je     8004202d29 <multiboot_read+0x494>
  8004202d16:	48 8b 85 60 ff ff ff 	mov    -0xa0(%rbp),%rax
  8004202d1d:	8b 40 14             	mov    0x14(%rax),%eax
  8004202d20:	83 f8 03             	cmp    $0x3,%eax
  8004202d23:	0f 85 93 00 00 00    	jne    8004202dbc <multiboot_read+0x527>
				if(mmap->base_addr_low < 0x100000 && mmap->base_addr_high == 0)
  8004202d29:	48 8b 85 60 ff ff ff 	mov    -0xa0(%rbp),%rax
  8004202d30:	8b 40 04             	mov    0x4(%rax),%eax
  8004202d33:	3d ff ff 0f 00       	cmp    $0xfffff,%eax
  8004202d38:	77 49                	ja     8004202d83 <multiboot_read+0x4ee>
  8004202d3a:	48 8b 85 60 ff ff ff 	mov    -0xa0(%rbp),%rax
  8004202d41:	8b 40 08             	mov    0x8(%rax),%eax
  8004202d44:	85 c0                	test   %eax,%eax
  8004202d46:	75 3b                	jne    8004202d83 <multiboot_read+0x4ee>
					*basemem += APPEND_HILO(mmap->length_high, mmap->length_low);
  8004202d48:	48 8b 85 50 ff ff ff 	mov    -0xb0(%rbp),%rax
  8004202d4f:	48 8b 10             	mov    (%rax),%rdx
  8004202d52:	48 8b 85 60 ff ff ff 	mov    -0xa0(%rbp),%rax
  8004202d59:	8b 40 10             	mov    0x10(%rax),%eax
  8004202d5c:	89 c0                	mov    %eax,%eax
  8004202d5e:	48 c1 e0 20          	shl    $0x20,%rax
  8004202d62:	48 89 c1             	mov    %rax,%rcx
  8004202d65:	48 8b 85 60 ff ff ff 	mov    -0xa0(%rbp),%rax
  8004202d6c:	8b 40 0c             	mov    0xc(%rax),%eax
  8004202d6f:	89 c0                	mov    %eax,%eax
  8004202d71:	48 01 c8             	add    %rcx,%rax
  8004202d74:	48 01 c2             	add    %rax,%rdx
  8004202d77:	48 8b 85 50 ff ff ff 	mov    -0xb0(%rbp),%rax
  8004202d7e:	48 89 10             	mov    %rdx,(%rax)
  8004202d81:	eb 39                	jmp    8004202dbc <multiboot_read+0x527>
				else
					*extmem += APPEND_HILO(mmap->length_high, mmap->length_low);
  8004202d83:	48 8b 85 48 ff ff ff 	mov    -0xb8(%rbp),%rax
  8004202d8a:	48 8b 10             	mov    (%rax),%rdx
  8004202d8d:	48 8b 85 60 ff ff ff 	mov    -0xa0(%rbp),%rax
  8004202d94:	8b 40 10             	mov    0x10(%rax),%eax
  8004202d97:	89 c0                	mov    %eax,%eax
  8004202d99:	48 c1 e0 20          	shl    $0x20,%rax
  8004202d9d:	48 89 c1             	mov    %rax,%rcx
  8004202da0:	48 8b 85 60 ff ff ff 	mov    -0xa0(%rbp),%rax
  8004202da7:	8b 40 0c             	mov    0xc(%rax),%eax
  8004202daa:	89 c0                	mov    %eax,%eax
  8004202dac:	48 01 c8             	add    %rcx,%rax
  8004202daf:	48 01 c2             	add    %rax,%rdx
  8004202db2:	48 8b 85 48 ff ff ff 	mov    -0xb8(%rbp),%rax
  8004202db9:	48 89 10             	mov    %rdx,(%rax)
			prev->type = type;
			this->type = type;
		}
	}

	for(i=0;i < (mbinfo->mmap_length / (sizeof(memory_map_t))); i++) {
  8004202dbc:	83 45 ec 01          	addl   $0x1,-0x14(%rbp)
  8004202dc0:	8b 45 ec             	mov    -0x14(%rbp),%eax
  8004202dc3:	48 63 c8             	movslq %eax,%rcx
  8004202dc6:	48 8b 85 58 ff ff ff 	mov    -0xa8(%rbp),%rax
  8004202dcd:	8b 40 2c             	mov    0x2c(%rax),%eax
  8004202dd0:	ba ab aa aa aa       	mov    $0xaaaaaaab,%edx
  8004202dd5:	f7 e2                	mul    %edx
  8004202dd7:	89 d0                	mov    %edx,%eax
  8004202dd9:	c1 e8 04             	shr    $0x4,%eax
  8004202ddc:	89 c0                	mov    %eax,%eax
  8004202dde:	48 39 c1             	cmp    %rax,%rcx
  8004202de1:	0f 82 fd fe ff ff    	jb     8004202ce4 <multiboot_read+0x44f>
  8004202de7:	4c 89 e4             	mov    %r12,%rsp
				else
					*extmem += APPEND_HILO(mmap->length_high, mmap->length_low);
			}
		}
	}
}
  8004202dea:	48 8d 65 f0          	lea    -0x10(%rbp),%rsp
  8004202dee:	5b                   	pop    %rbx
  8004202def:	41 5c                	pop    %r12
  8004202df1:	5d                   	pop    %rbp
  8004202df2:	c3                   	retq   

0000008004202df3 <i386_detect_memory>:

static void
i386_detect_memory(void)
{
  8004202df3:	55                   	push   %rbp
  8004202df4:	48 89 e5             	mov    %rsp,%rbp
  8004202df7:	48 83 ec 50          	sub    $0x50,%rsp
	size_t npages_extmem;
	size_t basemem = 0;
  8004202dfb:	48 c7 45 c0 00 00 00 	movq   $0x0,-0x40(%rbp)
  8004202e02:	00 
	size_t extmem = 0;
  8004202e03:	48 c7 45 b8 00 00 00 	movq   $0x0,-0x48(%rbp)
  8004202e0a:	00 

	extern uintptr_t end_debug;
	cprintf("enddebug = %x\n ",end_debug);
  8004202e0b:	48 b8 48 57 37 04 80 	movabs $0x8004375748,%rax
  8004202e12:	00 00 00 
  8004202e15:	48 8b 00             	mov    (%rax),%rax
  8004202e18:	48 89 c6             	mov    %rax,%rsi
  8004202e1b:	48 bf 39 79 21 04 80 	movabs $0x8004217939,%rdi
  8004202e22:	00 00 00 
  8004202e25:	b8 00 00 00 00       	mov    $0x0,%eax
  8004202e2a:	48 ba 7f 97 20 04 80 	movabs $0x800420977f,%rdx
  8004202e31:	00 00 00 
  8004202e34:	ff d2                	callq  *%rdx

	// Check if the bootloader passed us a multiboot structure
	extern char multiboot_info[];
	uintptr_t* mbp = (uintptr_t*)multiboot_info;
  8004202e36:	48 b8 00 70 10 00 00 	movabs $0x107000,%rax
  8004202e3d:	00 00 00 
  8004202e40:	48 89 45 f0          	mov    %rax,-0x10(%rbp)
	multiboot_info_t * mbinfo = (multiboot_info_t*)*mbp;
  8004202e44:	48 8b 45 f0          	mov    -0x10(%rbp),%rax
  8004202e48:	48 8b 00             	mov    (%rax),%rax
  8004202e4b:	48 89 45 e8          	mov    %rax,-0x18(%rbp)

	if(mbinfo && (mbinfo->flags & MB_FLAG_MMAP)) {
  8004202e4f:	48 83 7d e8 00       	cmpq   $0x0,-0x18(%rbp)
  8004202e54:	74 2d                	je     8004202e83 <i386_detect_memory+0x90>
  8004202e56:	48 8b 45 e8          	mov    -0x18(%rbp),%rax
  8004202e5a:	8b 00                	mov    (%rax),%eax
  8004202e5c:	83 e0 40             	and    $0x40,%eax
  8004202e5f:	85 c0                	test   %eax,%eax
  8004202e61:	74 20                	je     8004202e83 <i386_detect_memory+0x90>
		multiboot_read(mbinfo, &basemem, &extmem);
  8004202e63:	48 8d 55 b8          	lea    -0x48(%rbp),%rdx
  8004202e67:	48 8d 4d c0          	lea    -0x40(%rbp),%rcx
  8004202e6b:	48 8b 45 e8          	mov    -0x18(%rbp),%rax
  8004202e6f:	48 89 ce             	mov    %rcx,%rsi
  8004202e72:	48 89 c7             	mov    %rax,%rdi
  8004202e75:	48 b8 95 28 20 04 80 	movabs $0x8004202895,%rax
  8004202e7c:	00 00 00 
  8004202e7f:	ff d0                	callq  *%rax
  8004202e81:	eb 34                	jmp    8004202eb7 <i386_detect_memory+0xc4>
	} else {
		basemem = (nvram_read(NVRAM_BASELO) * 1024);
  8004202e83:	bf 15 00 00 00       	mov    $0x15,%edi
  8004202e88:	48 b8 56 28 20 04 80 	movabs $0x8004202856,%rax
  8004202e8f:	00 00 00 
  8004202e92:	ff d0                	callq  *%rax
  8004202e94:	c1 e0 0a             	shl    $0xa,%eax
  8004202e97:	48 98                	cltq   
  8004202e99:	48 89 45 c0          	mov    %rax,-0x40(%rbp)
		extmem = (nvram_read(NVRAM_EXTLO) * 1024);
  8004202e9d:	bf 17 00 00 00       	mov    $0x17,%edi
  8004202ea2:	48 b8 56 28 20 04 80 	movabs $0x8004202856,%rax
  8004202ea9:	00 00 00 
  8004202eac:	ff d0                	callq  *%rax
  8004202eae:	c1 e0 0a             	shl    $0xa,%eax
  8004202eb1:	48 98                	cltq   
  8004202eb3:	48 89 45 b8          	mov    %rax,-0x48(%rbp)
	}

	assert(basemem);
  8004202eb7:	48 8b 45 c0          	mov    -0x40(%rbp),%rax
  8004202ebb:	48 85 c0             	test   %rax,%rax
  8004202ebe:	75 35                	jne    8004202ef5 <i386_detect_memory+0x102>
  8004202ec0:	48 b9 49 79 21 04 80 	movabs $0x8004217949,%rcx
  8004202ec7:	00 00 00 
  8004202eca:	48 ba 51 79 21 04 80 	movabs $0x8004217951,%rdx
  8004202ed1:	00 00 00 
  8004202ed4:	be 8c 00 00 00       	mov    $0x8c,%esi
  8004202ed9:	48 bf 66 79 21 04 80 	movabs $0x8004217966,%rdi
  8004202ee0:	00 00 00 
  8004202ee3:	b8 00 00 00 00       	mov    $0x0,%eax
  8004202ee8:	49 b8 08 06 20 04 80 	movabs $0x8004200608,%r8
  8004202eef:	00 00 00 
  8004202ef2:	41 ff d0             	callq  *%r8

	npages_basemem = basemem / PGSIZE;
  8004202ef5:	48 8b 45 c0          	mov    -0x40(%rbp),%rax
  8004202ef9:	48 c1 e8 0c          	shr    $0xc,%rax
  8004202efd:	48 89 c2             	mov    %rax,%rdx
  8004202f00:	48 b8 30 42 37 04 80 	movabs $0x8004374230,%rax
  8004202f07:	00 00 00 
  8004202f0a:	48 89 10             	mov    %rdx,(%rax)
	npages_extmem = extmem / PGSIZE;
  8004202f0d:	48 8b 45 b8          	mov    -0x48(%rbp),%rax
  8004202f11:	48 c1 e8 0c          	shr    $0xc,%rax
  8004202f15:	48 89 45 f8          	mov    %rax,-0x8(%rbp)
	
	if(nvram_read(NVRAM_EXTLO) == 0xffff) {
  8004202f19:	bf 17 00 00 00       	mov    $0x17,%edi
  8004202f1e:	48 b8 56 28 20 04 80 	movabs $0x8004202856,%rax
  8004202f25:	00 00 00 
  8004202f28:	ff d0                	callq  *%rax
  8004202f2a:	3d ff ff 00 00       	cmp    $0xffff,%eax
  8004202f2f:	75 2c                	jne    8004202f5d <i386_detect_memory+0x16a>
		// EXTMEM > 16M in blocks of 64k
		size_t pextmem = nvram_read(NVRAM_EXTGT16LO) * (64 * 1024);
  8004202f31:	bf 34 00 00 00       	mov    $0x34,%edi
  8004202f36:	48 b8 56 28 20 04 80 	movabs $0x8004202856,%rax
  8004202f3d:	00 00 00 
  8004202f40:	ff d0                	callq  *%rax
  8004202f42:	c1 e0 10             	shl    $0x10,%eax
  8004202f45:	48 98                	cltq   
  8004202f47:	48 89 45 e0          	mov    %rax,-0x20(%rbp)
		npages_extmem = ((16 * 1024 * 1024) + pextmem - (1 * 1024 * 1024)) / PGSIZE;
  8004202f4b:	48 8b 45 e0          	mov    -0x20(%rbp),%rax
  8004202f4f:	48 05 00 00 f0 00    	add    $0xf00000,%rax
  8004202f55:	48 c1 e8 0c          	shr    $0xc,%rax
  8004202f59:	48 89 45 f8          	mov    %rax,-0x8(%rbp)
	}
	
	// Calculate the number of physical pages available in both base
	// and extended memory.
	if (npages_extmem)
  8004202f5d:	48 83 7d f8 00       	cmpq   $0x0,-0x8(%rbp)
  8004202f62:	74 1a                	je     8004202f7e <i386_detect_memory+0x18b>
		npages = (EXTPHYSMEM / PGSIZE) + npages_extmem;
  8004202f64:	48 8b 45 f8          	mov    -0x8(%rbp),%rax
  8004202f68:	48 8d 90 00 01 00 00 	lea    0x100(%rax),%rdx
  8004202f6f:	48 b8 78 57 37 04 80 	movabs $0x8004375778,%rax
  8004202f76:	00 00 00 
  8004202f79:	48 89 10             	mov    %rdx,(%rax)
  8004202f7c:	eb 1a                	jmp    8004202f98 <i386_detect_memory+0x1a5>
	else
		npages = npages_basemem;
  8004202f7e:	48 b8 30 42 37 04 80 	movabs $0x8004374230,%rax
  8004202f85:	00 00 00 
  8004202f88:	48 8b 10             	mov    (%rax),%rdx
  8004202f8b:	48 b8 78 57 37 04 80 	movabs $0x8004375778,%rax
  8004202f92:	00 00 00 
  8004202f95:	48 89 10             	mov    %rdx,(%rax)

	cprintf("Physical memory: %uM available, base = %uK, extended = %uK, npages = %d\n",
  8004202f98:	48 b8 78 57 37 04 80 	movabs $0x8004375778,%rax
  8004202f9f:	00 00 00 
  8004202fa2:	48 8b 30             	mov    (%rax),%rsi
		npages * PGSIZE / (1024 * 1024),
		npages_basemem * PGSIZE / 1024,
		npages_extmem * PGSIZE / 1024,
  8004202fa5:	48 8b 45 f8          	mov    -0x8(%rbp),%rax
  8004202fa9:	48 c1 e0 0c          	shl    $0xc,%rax
	if (npages_extmem)
		npages = (EXTPHYSMEM / PGSIZE) + npages_extmem;
	else
		npages = npages_basemem;

	cprintf("Physical memory: %uM available, base = %uK, extended = %uK, npages = %d\n",
  8004202fad:	48 c1 e8 0a          	shr    $0xa,%rax
  8004202fb1:	48 89 c1             	mov    %rax,%rcx
		npages * PGSIZE / (1024 * 1024),
		npages_basemem * PGSIZE / 1024,
  8004202fb4:	48 b8 30 42 37 04 80 	movabs $0x8004374230,%rax
  8004202fbb:	00 00 00 
  8004202fbe:	48 8b 00             	mov    (%rax),%rax
  8004202fc1:	48 c1 e0 0c          	shl    $0xc,%rax
	if (npages_extmem)
		npages = (EXTPHYSMEM / PGSIZE) + npages_extmem;
	else
		npages = npages_basemem;

	cprintf("Physical memory: %uM available, base = %uK, extended = %uK, npages = %d\n",
  8004202fc5:	48 c1 e8 0a          	shr    $0xa,%rax
  8004202fc9:	48 89 c2             	mov    %rax,%rdx
		npages * PGSIZE / (1024 * 1024),
  8004202fcc:	48 b8 78 57 37 04 80 	movabs $0x8004375778,%rax
  8004202fd3:	00 00 00 
  8004202fd6:	48 8b 00             	mov    (%rax),%rax
  8004202fd9:	48 c1 e0 0c          	shl    $0xc,%rax
	if (npages_extmem)
		npages = (EXTPHYSMEM / PGSIZE) + npages_extmem;
	else
		npages = npages_basemem;

	cprintf("Physical memory: %uM available, base = %uK, extended = %uK, npages = %d\n",
  8004202fdd:	48 c1 e8 14          	shr    $0x14,%rax
  8004202fe1:	49 89 f0             	mov    %rsi,%r8
  8004202fe4:	48 89 c6             	mov    %rax,%rsi
  8004202fe7:	48 bf 78 79 21 04 80 	movabs $0x8004217978,%rdi
  8004202fee:	00 00 00 
  8004202ff1:	b8 00 00 00 00       	mov    $0x0,%eax
  8004202ff6:	49 b9 7f 97 20 04 80 	movabs $0x800420977f,%r9
  8004202ffd:	00 00 00 
  8004203000:	41 ff d1             	callq  *%r9
	//JOS 64 pages are limited by the size of both the UPAGES
	//  virtual address space, and the range from KERNBASE to UVPT.
	//
	// NB: qemu seems to have a bug that crashes the host system on 13.10 if you try to 
	//     max out memory.
	uint64_t upages_max = (ULIM - UPAGES) / sizeof(struct PageInfo);
  8004203003:	48 c7 45 d8 00 00 32 	movq   $0x320000,-0x28(%rbp)
  800420300a:	00 
	uint64_t kern_mem_max = (UVPT - KERNBASE) / PGSIZE;
  800420300b:	48 c7 45 d0 00 c0 ff 	movq   $0x7ffc000,-0x30(%rbp)
  8004203012:	07 
	cprintf("Pages limited to %llu by upage address range (%uMB), Pages limited to %llu by remapped phys mem (%uMB)\n", 
		upages_max, ((upages_max * PGSIZE) / (1024 * 1024)),
		kern_mem_max, kern_mem_max * PGSIZE / (1024 * 1024));
  8004203013:	48 8b 45 d0          	mov    -0x30(%rbp),%rax
  8004203017:	48 c1 e0 0c          	shl    $0xc,%rax
	//
	// NB: qemu seems to have a bug that crashes the host system on 13.10 if you try to 
	//     max out memory.
	uint64_t upages_max = (ULIM - UPAGES) / sizeof(struct PageInfo);
	uint64_t kern_mem_max = (UVPT - KERNBASE) / PGSIZE;
	cprintf("Pages limited to %llu by upage address range (%uMB), Pages limited to %llu by remapped phys mem (%uMB)\n", 
  800420301b:	48 c1 e8 14          	shr    $0x14,%rax
  800420301f:	48 89 c1             	mov    %rax,%rcx
		upages_max, ((upages_max * PGSIZE) / (1024 * 1024)),
  8004203022:	48 8b 45 d8          	mov    -0x28(%rbp),%rax
  8004203026:	48 c1 e0 0c          	shl    $0xc,%rax
	//
	// NB: qemu seems to have a bug that crashes the host system on 13.10 if you try to 
	//     max out memory.
	uint64_t upages_max = (ULIM - UPAGES) / sizeof(struct PageInfo);
	uint64_t kern_mem_max = (UVPT - KERNBASE) / PGSIZE;
	cprintf("Pages limited to %llu by upage address range (%uMB), Pages limited to %llu by remapped phys mem (%uMB)\n", 
  800420302a:	48 c1 e8 14          	shr    $0x14,%rax
  800420302e:	48 89 c6             	mov    %rax,%rsi
  8004203031:	48 8b 55 d0          	mov    -0x30(%rbp),%rdx
  8004203035:	48 8b 45 d8          	mov    -0x28(%rbp),%rax
  8004203039:	49 89 c8             	mov    %rcx,%r8
  800420303c:	48 89 d1             	mov    %rdx,%rcx
  800420303f:	48 89 f2             	mov    %rsi,%rdx
  8004203042:	48 89 c6             	mov    %rax,%rsi
  8004203045:	48 bf c8 79 21 04 80 	movabs $0x80042179c8,%rdi
  800420304c:	00 00 00 
  800420304f:	b8 00 00 00 00       	mov    $0x0,%eax
  8004203054:	49 b9 7f 97 20 04 80 	movabs $0x800420977f,%r9
  800420305b:	00 00 00 
  800420305e:	41 ff d1             	callq  *%r9
		upages_max, ((upages_max * PGSIZE) / (1024 * 1024)),
		kern_mem_max, kern_mem_max * PGSIZE / (1024 * 1024));
	uint64_t max_npages = upages_max < kern_mem_max ? upages_max : kern_mem_max;
  8004203061:	48 8b 45 d8          	mov    -0x28(%rbp),%rax
  8004203065:	48 39 45 d0          	cmp    %rax,-0x30(%rbp)
  8004203069:	48 0f 46 45 d0       	cmovbe -0x30(%rbp),%rax
  800420306e:	48 89 45 c8          	mov    %rax,-0x38(%rbp)

	if(npages > max_npages) {
  8004203072:	48 b8 78 57 37 04 80 	movabs $0x8004375778,%rax
  8004203079:	00 00 00 
  800420307c:	48 8b 00             	mov    (%rax),%rax
  800420307f:	48 3b 45 c8          	cmp    -0x38(%rbp),%rax
  8004203083:	76 3a                	jbe    80042030bf <i386_detect_memory+0x2cc>
		npages = max_npages - 1024;
  8004203085:	48 8b 45 c8          	mov    -0x38(%rbp),%rax
  8004203089:	48 8d 90 00 fc ff ff 	lea    -0x400(%rax),%rdx
  8004203090:	48 b8 78 57 37 04 80 	movabs $0x8004375778,%rax
  8004203097:	00 00 00 
  800420309a:	48 89 10             	mov    %rdx,(%rax)
		cprintf("Using only %uK of the available memory.\n", max_npages);
  800420309d:	48 8b 45 c8          	mov    -0x38(%rbp),%rax
  80042030a1:	48 89 c6             	mov    %rax,%rsi
  80042030a4:	48 bf 30 7a 21 04 80 	movabs $0x8004217a30,%rdi
  80042030ab:	00 00 00 
  80042030ae:	b8 00 00 00 00       	mov    $0x0,%eax
  80042030b3:	48 ba 7f 97 20 04 80 	movabs $0x800420977f,%rdx
  80042030ba:	00 00 00 
  80042030bd:	ff d2                	callq  *%rdx
	}
}
  80042030bf:	c9                   	leaveq 
  80042030c0:	c3                   	retq   

00000080042030c1 <boot_alloc>:
// If we're out of memory, boot_alloc should panic.
// This function may ONLY be used during initialization,
// before the page_free_list list has been set up.
static void *
boot_alloc(uint32_t n)
{
  80042030c1:	55                   	push   %rbp
  80042030c2:	48 89 e5             	mov    %rsp,%rbp
  80042030c5:	48 83 ec 34          	sub    $0x34,%rsp
  80042030c9:	89 7d cc             	mov    %edi,-0x34(%rbp)
	// Initialize nextfree if this is the first time.
	// 'end' is a magic symbol automatically generated by the linker,
	// which points to the end of the kernel's bss segment:
	// the first virtual address that the linker did *not* assign
	// to any kernel code or global variables.
	if (!nextfree) {
  80042030cc:	48 b8 48 42 37 04 80 	movabs $0x8004374248,%rax
  80042030d3:	00 00 00 
  80042030d6:	48 8b 00             	mov    (%rax),%rax
  80042030d9:	48 85 c0             	test   %rax,%rax
  80042030dc:	75 4b                	jne    8004203129 <boot_alloc+0x68>
#ifdef VMM_GUEST
		extern char end[];
		nextfree = ROUNDUP((char *) end, PGSIZE);
  80042030de:	48 c7 45 f8 00 10 00 	movq   $0x1000,-0x8(%rbp)
  80042030e5:	00 
  80042030e6:	48 b8 10 80 3b 04 80 	movabs $0x80043b8010,%rax
  80042030ed:	00 00 00 
  80042030f0:	48 8d 50 ff          	lea    -0x1(%rax),%rdx
  80042030f4:	48 8b 45 f8          	mov    -0x8(%rbp),%rax
  80042030f8:	48 01 d0             	add    %rdx,%rax
  80042030fb:	48 89 45 f0          	mov    %rax,-0x10(%rbp)
  80042030ff:	48 8b 45 f0          	mov    -0x10(%rbp),%rax
  8004203103:	ba 00 00 00 00       	mov    $0x0,%edx
  8004203108:	48 f7 75 f8          	divq   -0x8(%rbp)
  800420310c:	48 89 d0             	mov    %rdx,%rax
  800420310f:	48 8b 55 f0          	mov    -0x10(%rbp),%rdx
  8004203113:	48 29 c2             	sub    %rax,%rdx
  8004203116:	48 89 d0             	mov    %rdx,%rax
  8004203119:	48 89 c2             	mov    %rax,%rdx
  800420311c:	48 b8 48 42 37 04 80 	movabs $0x8004374248,%rax
  8004203123:	00 00 00 
  8004203126:	48 89 10             	mov    %rdx,(%rax)
